   1              	 .cpu cortex-m0
   2              	 .fpu softvfp
   3              	 .eabi_attribute 20,1
   4              	 .eabi_attribute 21,1
   5              	 .eabi_attribute 23,3
   6              	 .eabi_attribute 24,1
   7              	 .eabi_attribute 25,1
   8              	 .eabi_attribute 26,1
   9              	 .eabi_attribute 30,6
  10              	 .eabi_attribute 34,0
  11              	 .eabi_attribute 18,4
  12              	 .code 16
  13              	 .file "main.c"
  14              	 .text
  15              	.Ltext0:
  16              	 .cfi_sections .debug_frame
  17              	 .section .text.XMC_GPIO_SetOutputHigh,"ax",%progbits
  18              	 .align 2
  19              	 .code 16
  20              	 .thumb_func
  22              	XMC_GPIO_SetOutputHigh:
  23              	.LFB52:
  24              	 .file 1 "C:/c_root/electronics/DAVE_work_2019/pocket-nim/Libraries/XMCLib/inc/xmc_gpio.h"
   1:C:/c_root/electronics/DAVE_work_2019/pocket-nim/Libraries/XMCLib/inc\xmc_gpio.h **** /**
   2:C:/c_root/electronics/DAVE_work_2019/pocket-nim/Libraries/XMCLib/inc\xmc_gpio.h ****  * @file xmc_gpio.h
   3:C:/c_root/electronics/DAVE_work_2019/pocket-nim/Libraries/XMCLib/inc\xmc_gpio.h ****  * @date 2015-06-20
   4:C:/c_root/electronics/DAVE_work_2019/pocket-nim/Libraries/XMCLib/inc\xmc_gpio.h ****  *
   5:C:/c_root/electronics/DAVE_work_2019/pocket-nim/Libraries/XMCLib/inc\xmc_gpio.h ****  * @cond
   6:C:/c_root/electronics/DAVE_work_2019/pocket-nim/Libraries/XMCLib/inc\xmc_gpio.h ****   *************************************************************************************************
   7:C:/c_root/electronics/DAVE_work_2019/pocket-nim/Libraries/XMCLib/inc\xmc_gpio.h ****  * XMClib v2.1.8 - XMC Peripheral Driver Library 
   8:C:/c_root/electronics/DAVE_work_2019/pocket-nim/Libraries/XMCLib/inc\xmc_gpio.h ****  *
   9:C:/c_root/electronics/DAVE_work_2019/pocket-nim/Libraries/XMCLib/inc\xmc_gpio.h ****  * Copyright (c) 2015-2016, Infineon Technologies AG
  10:C:/c_root/electronics/DAVE_work_2019/pocket-nim/Libraries/XMCLib/inc\xmc_gpio.h ****  * All rights reserved.                        
  11:C:/c_root/electronics/DAVE_work_2019/pocket-nim/Libraries/XMCLib/inc\xmc_gpio.h ****  *                                             
  12:C:/c_root/electronics/DAVE_work_2019/pocket-nim/Libraries/XMCLib/inc\xmc_gpio.h ****  * Redistribution and use in source and binary forms, with or without modification,are permitted pr
  13:C:/c_root/electronics/DAVE_work_2019/pocket-nim/Libraries/XMCLib/inc\xmc_gpio.h ****  * following conditions are met:   
  14:C:/c_root/electronics/DAVE_work_2019/pocket-nim/Libraries/XMCLib/inc\xmc_gpio.h ****  *                                                                              
  15:C:/c_root/electronics/DAVE_work_2019/pocket-nim/Libraries/XMCLib/inc\xmc_gpio.h ****  * Redistributions of source code must retain the above copyright notice, this list of conditions a
  16:C:/c_root/electronics/DAVE_work_2019/pocket-nim/Libraries/XMCLib/inc\xmc_gpio.h ****  * disclaimer.                        
  17:C:/c_root/electronics/DAVE_work_2019/pocket-nim/Libraries/XMCLib/inc\xmc_gpio.h ****  * 
  18:C:/c_root/electronics/DAVE_work_2019/pocket-nim/Libraries/XMCLib/inc\xmc_gpio.h ****  * Redistributions in binary form must reproduce the above copyright notice, this list of condition
  19:C:/c_root/electronics/DAVE_work_2019/pocket-nim/Libraries/XMCLib/inc\xmc_gpio.h ****  * disclaimer in the documentation and/or other materials provided with the distribution.          
  20:C:/c_root/electronics/DAVE_work_2019/pocket-nim/Libraries/XMCLib/inc\xmc_gpio.h ****  * 
  21:C:/c_root/electronics/DAVE_work_2019/pocket-nim/Libraries/XMCLib/inc\xmc_gpio.h ****  * Neither the name of the copyright holders nor the names of its contributors may be used to endor
  22:C:/c_root/electronics/DAVE_work_2019/pocket-nim/Libraries/XMCLib/inc\xmc_gpio.h ****  * products derived from this software without specific prior written permission.                  
  23:C:/c_root/electronics/DAVE_work_2019/pocket-nim/Libraries/XMCLib/inc\xmc_gpio.h ****  *                                                                              
  24:C:/c_root/electronics/DAVE_work_2019/pocket-nim/Libraries/XMCLib/inc\xmc_gpio.h ****  * THIS SOFTWARE IS PROVIDED BY THE COPYRIGHT HOLDERS AND CONTRIBUTORS "AS IS" AND ANY EXPRESS OR I
  25:C:/c_root/electronics/DAVE_work_2019/pocket-nim/Libraries/XMCLib/inc\xmc_gpio.h ****  * INCLUDING, BUT NOT LIMITED TO, THE IMPLIED WARRANTIES OF MERCHANTABILITY AND FITNESS FOR A PARTI
  26:C:/c_root/electronics/DAVE_work_2019/pocket-nim/Libraries/XMCLib/inc\xmc_gpio.h ****  * DISCLAIMED. IN NO EVENT SHALL THE COPYRIGHT HOLDER OR CONTRIBUTORS BE LIABLE  FOR ANY DIRECT, IN
  27:C:/c_root/electronics/DAVE_work_2019/pocket-nim/Libraries/XMCLib/inc\xmc_gpio.h ****  * SPECIAL, EXEMPLARY, OR CONSEQUENTIAL DAMAGES (INCLUDING, BUT NOT LIMITED TO, PROCUREMENT OF SUBS
  28:C:/c_root/electronics/DAVE_work_2019/pocket-nim/Libraries/XMCLib/inc\xmc_gpio.h ****  * SERVICES; LOSS OF USE, DATA, OR PROFITS; OR BUSINESS INTERRUPTION) HOWEVER CAUSED AND ON ANY THE
  29:C:/c_root/electronics/DAVE_work_2019/pocket-nim/Libraries/XMCLib/inc\xmc_gpio.h ****  * WHETHER IN CONTRACT, STRICT LIABILITY,OR TORT (INCLUDING NEGLIGENCE OR OTHERWISE) ARISING IN ANY
  30:C:/c_root/electronics/DAVE_work_2019/pocket-nim/Libraries/XMCLib/inc\xmc_gpio.h ****  * OF THIS SOFTWARE, EVEN IF ADVISED OF THE POSSIBILITY OF SUCH DAMAGE.                            
  31:C:/c_root/electronics/DAVE_work_2019/pocket-nim/Libraries/XMCLib/inc\xmc_gpio.h ****  *                                                                              
  32:C:/c_root/electronics/DAVE_work_2019/pocket-nim/Libraries/XMCLib/inc\xmc_gpio.h ****  * To improve the quality of the software, users are encouraged to share modifications, enhancement
  33:C:/c_root/electronics/DAVE_work_2019/pocket-nim/Libraries/XMCLib/inc\xmc_gpio.h ****  * Infineon Technologies AG dave@infineon.com).                                                    
  34:C:/c_root/electronics/DAVE_work_2019/pocket-nim/Libraries/XMCLib/inc\xmc_gpio.h ****  **************************************************************************************************
  35:C:/c_root/electronics/DAVE_work_2019/pocket-nim/Libraries/XMCLib/inc\xmc_gpio.h ****  *
  36:C:/c_root/electronics/DAVE_work_2019/pocket-nim/Libraries/XMCLib/inc\xmc_gpio.h ****  * Change History
  37:C:/c_root/electronics/DAVE_work_2019/pocket-nim/Libraries/XMCLib/inc\xmc_gpio.h ****  * --------------
  38:C:/c_root/electronics/DAVE_work_2019/pocket-nim/Libraries/XMCLib/inc\xmc_gpio.h ****  *
  39:C:/c_root/electronics/DAVE_work_2019/pocket-nim/Libraries/XMCLib/inc\xmc_gpio.h ****  * 2015-02-20:
  40:C:/c_root/electronics/DAVE_work_2019/pocket-nim/Libraries/XMCLib/inc\xmc_gpio.h ****  *     - Initial draft<br>
  41:C:/c_root/electronics/DAVE_work_2019/pocket-nim/Libraries/XMCLib/inc\xmc_gpio.h ****  *     - Documentation improved <br>
  42:C:/c_root/electronics/DAVE_work_2019/pocket-nim/Libraries/XMCLib/inc\xmc_gpio.h ****  *      
  43:C:/c_root/electronics/DAVE_work_2019/pocket-nim/Libraries/XMCLib/inc\xmc_gpio.h ****  * 2015-06-20:
  44:C:/c_root/electronics/DAVE_work_2019/pocket-nim/Libraries/XMCLib/inc\xmc_gpio.h ****  *     - Removed version macros and declaration of GetDriverVersion API
  45:C:/c_root/electronics/DAVE_work_2019/pocket-nim/Libraries/XMCLib/inc\xmc_gpio.h ****  *
  46:C:/c_root/electronics/DAVE_work_2019/pocket-nim/Libraries/XMCLib/inc\xmc_gpio.h ****  * @endcond
  47:C:/c_root/electronics/DAVE_work_2019/pocket-nim/Libraries/XMCLib/inc\xmc_gpio.h ****  *
  48:C:/c_root/electronics/DAVE_work_2019/pocket-nim/Libraries/XMCLib/inc\xmc_gpio.h ****  */
  49:C:/c_root/electronics/DAVE_work_2019/pocket-nim/Libraries/XMCLib/inc\xmc_gpio.h **** 
  50:C:/c_root/electronics/DAVE_work_2019/pocket-nim/Libraries/XMCLib/inc\xmc_gpio.h **** #ifndef XMC_GPIO_H
  51:C:/c_root/electronics/DAVE_work_2019/pocket-nim/Libraries/XMCLib/inc\xmc_gpio.h **** #define XMC_GPIO_H
  52:C:/c_root/electronics/DAVE_work_2019/pocket-nim/Libraries/XMCLib/inc\xmc_gpio.h **** 
  53:C:/c_root/electronics/DAVE_work_2019/pocket-nim/Libraries/XMCLib/inc\xmc_gpio.h **** /**************************************************************************************************
  54:C:/c_root/electronics/DAVE_work_2019/pocket-nim/Libraries/XMCLib/inc\xmc_gpio.h ****  * HEADER FILES
  55:C:/c_root/electronics/DAVE_work_2019/pocket-nim/Libraries/XMCLib/inc\xmc_gpio.h ****  **************************************************************************************************
  56:C:/c_root/electronics/DAVE_work_2019/pocket-nim/Libraries/XMCLib/inc\xmc_gpio.h **** 
  57:C:/c_root/electronics/DAVE_work_2019/pocket-nim/Libraries/XMCLib/inc\xmc_gpio.h **** #include "xmc_common.h"
  58:C:/c_root/electronics/DAVE_work_2019/pocket-nim/Libraries/XMCLib/inc\xmc_gpio.h **** 
  59:C:/c_root/electronics/DAVE_work_2019/pocket-nim/Libraries/XMCLib/inc\xmc_gpio.h **** /**
  60:C:/c_root/electronics/DAVE_work_2019/pocket-nim/Libraries/XMCLib/inc\xmc_gpio.h ****  * @addtogroup XMClib XMC Peripheral Library
  61:C:/c_root/electronics/DAVE_work_2019/pocket-nim/Libraries/XMCLib/inc\xmc_gpio.h ****  * @{
  62:C:/c_root/electronics/DAVE_work_2019/pocket-nim/Libraries/XMCLib/inc\xmc_gpio.h ****  */
  63:C:/c_root/electronics/DAVE_work_2019/pocket-nim/Libraries/XMCLib/inc\xmc_gpio.h **** 
  64:C:/c_root/electronics/DAVE_work_2019/pocket-nim/Libraries/XMCLib/inc\xmc_gpio.h **** /**
  65:C:/c_root/electronics/DAVE_work_2019/pocket-nim/Libraries/XMCLib/inc\xmc_gpio.h ****  * @addtogroup GPIO
  66:C:/c_root/electronics/DAVE_work_2019/pocket-nim/Libraries/XMCLib/inc\xmc_gpio.h ****  * @brief General Purpose Input Output (GPIO) driver for the XMC microcontroller family.
  67:C:/c_root/electronics/DAVE_work_2019/pocket-nim/Libraries/XMCLib/inc\xmc_gpio.h ****  *
  68:C:/c_root/electronics/DAVE_work_2019/pocket-nim/Libraries/XMCLib/inc\xmc_gpio.h ****  * GPIO driver provide a generic and very flexible software interface for all standard digital I/O 
  69:C:/c_root/electronics/DAVE_work_2019/pocket-nim/Libraries/XMCLib/inc\xmc_gpio.h ****  * Each port slice has individual interfaces for the operation as General Purpose I/O and it furthe
  70:C:/c_root/electronics/DAVE_work_2019/pocket-nim/Libraries/XMCLib/inc\xmc_gpio.h ****  * connectivity to the on-chip periphery and the control for the pad characteristics. 
  71:C:/c_root/electronics/DAVE_work_2019/pocket-nim/Libraries/XMCLib/inc\xmc_gpio.h ****  *
  72:C:/c_root/electronics/DAVE_work_2019/pocket-nim/Libraries/XMCLib/inc\xmc_gpio.h ****  * The driver is divided into Input and Output mode.
  73:C:/c_root/electronics/DAVE_work_2019/pocket-nim/Libraries/XMCLib/inc\xmc_gpio.h ****  *
  74:C:/c_root/electronics/DAVE_work_2019/pocket-nim/Libraries/XMCLib/inc\xmc_gpio.h ****  * Input mode features:
  75:C:/c_root/electronics/DAVE_work_2019/pocket-nim/Libraries/XMCLib/inc\xmc_gpio.h ****  * -# Configuration structure XMC_GPIO_CONFIG_t and initialization function XMC_GPIO_Init()
  76:C:/c_root/electronics/DAVE_work_2019/pocket-nim/Libraries/XMCLib/inc\xmc_gpio.h ****  * -# Allows the selection of weak pull-up or pull-down device. Configuration structure XMC_GPIO_MO
  77:C:/c_root/electronics/DAVE_work_2019/pocket-nim/Libraries/XMCLib/inc\xmc_gpio.h ****  * \if XMC1
  78:C:/c_root/electronics/DAVE_work_2019/pocket-nim/Libraries/XMCLib/inc\xmc_gpio.h ****  * -# Allows the selection of input hysteresis. XMC_GPIO_SetInputHysteresis()
  79:C:/c_root/electronics/DAVE_work_2019/pocket-nim/Libraries/XMCLib/inc\xmc_gpio.h ****  * \endif
  80:C:/c_root/electronics/DAVE_work_2019/pocket-nim/Libraries/XMCLib/inc\xmc_gpio.h ****  *
  81:C:/c_root/electronics/DAVE_work_2019/pocket-nim/Libraries/XMCLib/inc\xmc_gpio.h ****  * 
  82:C:/c_root/electronics/DAVE_work_2019/pocket-nim/Libraries/XMCLib/inc\xmc_gpio.h ****  * Output mode features:
  83:C:/c_root/electronics/DAVE_work_2019/pocket-nim/Libraries/XMCLib/inc\xmc_gpio.h ****  * -# Allows the selection of push pull/open drain and Alternate output. Configuration structure XM
  84:C:/c_root/electronics/DAVE_work_2019/pocket-nim/Libraries/XMCLib/inc\xmc_gpio.h ****  * \if XMC4
  85:C:/c_root/electronics/DAVE_work_2019/pocket-nim/Libraries/XMCLib/inc\xmc_gpio.h ****  * -# Allows the selection of pad driver strength. Configuration structure XMC_GPIO_OUTPUT_STRENGTH
  86:C:/c_root/electronics/DAVE_work_2019/pocket-nim/Libraries/XMCLib/inc\xmc_gpio.h ****  * \endif
  87:C:/c_root/electronics/DAVE_work_2019/pocket-nim/Libraries/XMCLib/inc\xmc_gpio.h ****  *
  88:C:/c_root/electronics/DAVE_work_2019/pocket-nim/Libraries/XMCLib/inc\xmc_gpio.h ****  * -# Allows the selection of initial output level. Configuration structure XMC_GPIO_OUTPUT_LEVEL_t
  89:C:/c_root/electronics/DAVE_work_2019/pocket-nim/Libraries/XMCLib/inc\xmc_gpio.h ****  *
  90:C:/c_root/electronics/DAVE_work_2019/pocket-nim/Libraries/XMCLib/inc\xmc_gpio.h ****  *@{
  91:C:/c_root/electronics/DAVE_work_2019/pocket-nim/Libraries/XMCLib/inc\xmc_gpio.h ****  */
  92:C:/c_root/electronics/DAVE_work_2019/pocket-nim/Libraries/XMCLib/inc\xmc_gpio.h ****  
  93:C:/c_root/electronics/DAVE_work_2019/pocket-nim/Libraries/XMCLib/inc\xmc_gpio.h **** /**************************************************************************************************
  94:C:/c_root/electronics/DAVE_work_2019/pocket-nim/Libraries/XMCLib/inc\xmc_gpio.h ****  * MACROS
  95:C:/c_root/electronics/DAVE_work_2019/pocket-nim/Libraries/XMCLib/inc\xmc_gpio.h ****  **************************************************************************************************
  96:C:/c_root/electronics/DAVE_work_2019/pocket-nim/Libraries/XMCLib/inc\xmc_gpio.h **** 
  97:C:/c_root/electronics/DAVE_work_2019/pocket-nim/Libraries/XMCLib/inc\xmc_gpio.h **** #define PORT_IOCR_PC_Pos PORT0_IOCR0_PC0_Pos
  98:C:/c_root/electronics/DAVE_work_2019/pocket-nim/Libraries/XMCLib/inc\xmc_gpio.h **** #define PORT_IOCR_PC_Msk PORT0_IOCR0_PC0_Msk
  99:C:/c_root/electronics/DAVE_work_2019/pocket-nim/Libraries/XMCLib/inc\xmc_gpio.h **** 
 100:C:/c_root/electronics/DAVE_work_2019/pocket-nim/Libraries/XMCLib/inc\xmc_gpio.h **** #define PORT_IOCR_PC_Size 				(8U)
 101:C:/c_root/electronics/DAVE_work_2019/pocket-nim/Libraries/XMCLib/inc\xmc_gpio.h **** 											
 102:C:/c_root/electronics/DAVE_work_2019/pocket-nim/Libraries/XMCLib/inc\xmc_gpio.h **** 
 103:C:/c_root/electronics/DAVE_work_2019/pocket-nim/Libraries/XMCLib/inc\xmc_gpio.h **** #define XMC_GPIO_CHECK_OUTPUT_LEVEL(level) ((level == XMC_GPIO_OUTPUT_LEVEL_LOW) || \
 104:C:/c_root/electronics/DAVE_work_2019/pocket-nim/Libraries/XMCLib/inc\xmc_gpio.h ****                                             (level == XMC_GPIO_OUTPUT_LEVEL_HIGH))
 105:C:/c_root/electronics/DAVE_work_2019/pocket-nim/Libraries/XMCLib/inc\xmc_gpio.h ****                                             
 106:C:/c_root/electronics/DAVE_work_2019/pocket-nim/Libraries/XMCLib/inc\xmc_gpio.h **** #define XMC_GPIO_CHECK_HWCTRL(hwctrl) ((hwctrl == XMC_GPIO_HWCTRL_DISABLED) || \
 107:C:/c_root/electronics/DAVE_work_2019/pocket-nim/Libraries/XMCLib/inc\xmc_gpio.h ****                                        (hwctrl == XMC_GPIO_HWCTRL_PERIPHERAL1) || \
 108:C:/c_root/electronics/DAVE_work_2019/pocket-nim/Libraries/XMCLib/inc\xmc_gpio.h ****                                        (hwctrl == XMC_GPIO_HWCTRL_PERIPHERAL2))                    
 109:C:/c_root/electronics/DAVE_work_2019/pocket-nim/Libraries/XMCLib/inc\xmc_gpio.h ****                                             
 110:C:/c_root/electronics/DAVE_work_2019/pocket-nim/Libraries/XMCLib/inc\xmc_gpio.h **** /**************************************************************************************************
 111:C:/c_root/electronics/DAVE_work_2019/pocket-nim/Libraries/XMCLib/inc\xmc_gpio.h ****  * ENUMS
 112:C:/c_root/electronics/DAVE_work_2019/pocket-nim/Libraries/XMCLib/inc\xmc_gpio.h ****  **************************************************************************************************
 113:C:/c_root/electronics/DAVE_work_2019/pocket-nim/Libraries/XMCLib/inc\xmc_gpio.h **** 
 114:C:/c_root/electronics/DAVE_work_2019/pocket-nim/Libraries/XMCLib/inc\xmc_gpio.h **** 
 115:C:/c_root/electronics/DAVE_work_2019/pocket-nim/Libraries/XMCLib/inc\xmc_gpio.h **** /**
 116:C:/c_root/electronics/DAVE_work_2019/pocket-nim/Libraries/XMCLib/inc\xmc_gpio.h ****  * Defines output level of a pin. Use type \a XMC_GPIO_OUTPUT_LEVEL_t for this enum.
 117:C:/c_root/electronics/DAVE_work_2019/pocket-nim/Libraries/XMCLib/inc\xmc_gpio.h ****  */
 118:C:/c_root/electronics/DAVE_work_2019/pocket-nim/Libraries/XMCLib/inc\xmc_gpio.h **** typedef enum XMC_GPIO_OUTPUT_LEVEL
 119:C:/c_root/electronics/DAVE_work_2019/pocket-nim/Libraries/XMCLib/inc\xmc_gpio.h **** {
 120:C:/c_root/electronics/DAVE_work_2019/pocket-nim/Libraries/XMCLib/inc\xmc_gpio.h ****   XMC_GPIO_OUTPUT_LEVEL_LOW  = 0x10000U, /**<  Reset bit */
 121:C:/c_root/electronics/DAVE_work_2019/pocket-nim/Libraries/XMCLib/inc\xmc_gpio.h ****   XMC_GPIO_OUTPUT_LEVEL_HIGH = 0x1U, 	/**< Set bit  */
 122:C:/c_root/electronics/DAVE_work_2019/pocket-nim/Libraries/XMCLib/inc\xmc_gpio.h **** } XMC_GPIO_OUTPUT_LEVEL_t;
 123:C:/c_root/electronics/DAVE_work_2019/pocket-nim/Libraries/XMCLib/inc\xmc_gpio.h **** 
 124:C:/c_root/electronics/DAVE_work_2019/pocket-nim/Libraries/XMCLib/inc\xmc_gpio.h **** /**
 125:C:/c_root/electronics/DAVE_work_2019/pocket-nim/Libraries/XMCLib/inc\xmc_gpio.h ****  * Defines direct hardware control characteristics of the pin . Use type \a XMC_GPIO_HWCTRL_t for t
 126:C:/c_root/electronics/DAVE_work_2019/pocket-nim/Libraries/XMCLib/inc\xmc_gpio.h ****  */
 127:C:/c_root/electronics/DAVE_work_2019/pocket-nim/Libraries/XMCLib/inc\xmc_gpio.h **** typedef enum XMC_GPIO_HWCTRL
 128:C:/c_root/electronics/DAVE_work_2019/pocket-nim/Libraries/XMCLib/inc\xmc_gpio.h **** {
 129:C:/c_root/electronics/DAVE_work_2019/pocket-nim/Libraries/XMCLib/inc\xmc_gpio.h ****   XMC_GPIO_HWCTRL_DISABLED     = 0x0U, /**<  Software control only */
 130:C:/c_root/electronics/DAVE_work_2019/pocket-nim/Libraries/XMCLib/inc\xmc_gpio.h ****   XMC_GPIO_HWCTRL_PERIPHERAL1  = 0x1U, /**<  HWI0/HWO0 control path can override the software confi
 131:C:/c_root/electronics/DAVE_work_2019/pocket-nim/Libraries/XMCLib/inc\xmc_gpio.h ****   XMC_GPIO_HWCTRL_PERIPHERAL2  = 0x2U  /**<  HWI1/HWO1 control path can override the software confi
 132:C:/c_root/electronics/DAVE_work_2019/pocket-nim/Libraries/XMCLib/inc\xmc_gpio.h **** } XMC_GPIO_HWCTRL_t;
 133:C:/c_root/electronics/DAVE_work_2019/pocket-nim/Libraries/XMCLib/inc\xmc_gpio.h **** 
 134:C:/c_root/electronics/DAVE_work_2019/pocket-nim/Libraries/XMCLib/inc\xmc_gpio.h **** /**************************************************************************************************
 135:C:/c_root/electronics/DAVE_work_2019/pocket-nim/Libraries/XMCLib/inc\xmc_gpio.h ****  * DEVICE FAMILY EXTENSIONS
 136:C:/c_root/electronics/DAVE_work_2019/pocket-nim/Libraries/XMCLib/inc\xmc_gpio.h ****  **************************************************************************************************
 137:C:/c_root/electronics/DAVE_work_2019/pocket-nim/Libraries/XMCLib/inc\xmc_gpio.h **** 
 138:C:/c_root/electronics/DAVE_work_2019/pocket-nim/Libraries/XMCLib/inc\xmc_gpio.h ****  #if UC_FAMILY == XMC1
 139:C:/c_root/electronics/DAVE_work_2019/pocket-nim/Libraries/XMCLib/inc\xmc_gpio.h **** #include "xmc1_gpio.h"
 140:C:/c_root/electronics/DAVE_work_2019/pocket-nim/Libraries/XMCLib/inc\xmc_gpio.h **** #elif UC_FAMILY == XMC4
 141:C:/c_root/electronics/DAVE_work_2019/pocket-nim/Libraries/XMCLib/inc\xmc_gpio.h **** #include "xmc4_gpio.h"
 142:C:/c_root/electronics/DAVE_work_2019/pocket-nim/Libraries/XMCLib/inc\xmc_gpio.h **** #else
 143:C:/c_root/electronics/DAVE_work_2019/pocket-nim/Libraries/XMCLib/inc\xmc_gpio.h **** #error "xmc_gpio.h: family device not supported"
 144:C:/c_root/electronics/DAVE_work_2019/pocket-nim/Libraries/XMCLib/inc\xmc_gpio.h **** #endif
 145:C:/c_root/electronics/DAVE_work_2019/pocket-nim/Libraries/XMCLib/inc\xmc_gpio.h **** 
 146:C:/c_root/electronics/DAVE_work_2019/pocket-nim/Libraries/XMCLib/inc\xmc_gpio.h **** /**************************************************************************************************
 147:C:/c_root/electronics/DAVE_work_2019/pocket-nim/Libraries/XMCLib/inc\xmc_gpio.h ****  * API PROTOTYPES
 148:C:/c_root/electronics/DAVE_work_2019/pocket-nim/Libraries/XMCLib/inc\xmc_gpio.h ****  **************************************************************************************************
 149:C:/c_root/electronics/DAVE_work_2019/pocket-nim/Libraries/XMCLib/inc\xmc_gpio.h **** 
 150:C:/c_root/electronics/DAVE_work_2019/pocket-nim/Libraries/XMCLib/inc\xmc_gpio.h **** #ifdef __cplusplus
 151:C:/c_root/electronics/DAVE_work_2019/pocket-nim/Libraries/XMCLib/inc\xmc_gpio.h **** extern "C" {
 152:C:/c_root/electronics/DAVE_work_2019/pocket-nim/Libraries/XMCLib/inc\xmc_gpio.h **** #endif
 153:C:/c_root/electronics/DAVE_work_2019/pocket-nim/Libraries/XMCLib/inc\xmc_gpio.h **** 
 154:C:/c_root/electronics/DAVE_work_2019/pocket-nim/Libraries/XMCLib/inc\xmc_gpio.h **** 
 155:C:/c_root/electronics/DAVE_work_2019/pocket-nim/Libraries/XMCLib/inc\xmc_gpio.h **** /**
 156:C:/c_root/electronics/DAVE_work_2019/pocket-nim/Libraries/XMCLib/inc\xmc_gpio.h ****  * @param  port	  Constant pointer pointing to GPIO port, to access port registers like Pn_OUT,Pn_O
 157:C:/c_root/electronics/DAVE_work_2019/pocket-nim/Libraries/XMCLib/inc\xmc_gpio.h ****  * @param  pin	  Port pin number.
 158:C:/c_root/electronics/DAVE_work_2019/pocket-nim/Libraries/XMCLib/inc\xmc_gpio.h ****  * @param  config GPIO configuration data structure. Refer data structure @ref XMC_GPIO_CONFIG_t fo
 159:C:/c_root/electronics/DAVE_work_2019/pocket-nim/Libraries/XMCLib/inc\xmc_gpio.h ****  *
 160:C:/c_root/electronics/DAVE_work_2019/pocket-nim/Libraries/XMCLib/inc\xmc_gpio.h ****  * @return None
 161:C:/c_root/electronics/DAVE_work_2019/pocket-nim/Libraries/XMCLib/inc\xmc_gpio.h ****  *
 162:C:/c_root/electronics/DAVE_work_2019/pocket-nim/Libraries/XMCLib/inc\xmc_gpio.h ****  * \par<b>Description:</b><br>
 163:C:/c_root/electronics/DAVE_work_2019/pocket-nim/Libraries/XMCLib/inc\xmc_gpio.h ****  * \if XMC1
 164:C:/c_root/electronics/DAVE_work_2019/pocket-nim/Libraries/XMCLib/inc\xmc_gpio.h ****  * Initializes input / output mode settings like, pull up / pull down devices,hysteresis, push pull
 165:C:/c_root/electronics/DAVE_work_2019/pocket-nim/Libraries/XMCLib/inc\xmc_gpio.h ****  * Also configures alternate function outputs and clears hardware port control for a selected \a po
 166:C:/c_root/electronics/DAVE_work_2019/pocket-nim/Libraries/XMCLib/inc\xmc_gpio.h ****  * \a config provides selected I/O settings. It configures hardware registers Pn_IOCR,Pn_OUT, Pn_OM
 167:C:/c_root/electronics/DAVE_work_2019/pocket-nim/Libraries/XMCLib/inc\xmc_gpio.h ****  * \endif
 168:C:/c_root/electronics/DAVE_work_2019/pocket-nim/Libraries/XMCLib/inc\xmc_gpio.h ****  * \if XMC4
 169:C:/c_root/electronics/DAVE_work_2019/pocket-nim/Libraries/XMCLib/inc\xmc_gpio.h ****  * Initializes input / output mode settings like, pull up / pull down devices,push pull /open drain
 170:C:/c_root/electronics/DAVE_work_2019/pocket-nim/Libraries/XMCLib/inc\xmc_gpio.h ****  * Also configures alternate function outputs and clears hardware port control for selected \a port
 171:C:/c_root/electronics/DAVE_work_2019/pocket-nim/Libraries/XMCLib/inc\xmc_gpio.h ****  * It configures hardware registers Pn_IOCR,Pn_OUT,Pn_OMR,Pn_PDISC and Pn_PDR.\n
 172:C:/c_root/electronics/DAVE_work_2019/pocket-nim/Libraries/XMCLib/inc\xmc_gpio.h ****  * \endif
 173:C:/c_root/electronics/DAVE_work_2019/pocket-nim/Libraries/XMCLib/inc\xmc_gpio.h ****  *
 174:C:/c_root/electronics/DAVE_work_2019/pocket-nim/Libraries/XMCLib/inc\xmc_gpio.h ****  * \par<b>Related APIs:</b><BR>
 175:C:/c_root/electronics/DAVE_work_2019/pocket-nim/Libraries/XMCLib/inc\xmc_gpio.h ****  *  None
 176:C:/c_root/electronics/DAVE_work_2019/pocket-nim/Libraries/XMCLib/inc\xmc_gpio.h ****  *
 177:C:/c_root/electronics/DAVE_work_2019/pocket-nim/Libraries/XMCLib/inc\xmc_gpio.h ****  * \par<b>Note:</b><br>
 178:C:/c_root/electronics/DAVE_work_2019/pocket-nim/Libraries/XMCLib/inc\xmc_gpio.h ****  * This API is called in definition of DAVE_init by code generation and therefore should not be exp
 179:C:/c_root/electronics/DAVE_work_2019/pocket-nim/Libraries/XMCLib/inc\xmc_gpio.h ****  * for the normal operation. Use other APIs only after DAVE_init is called successfully (returns DA
 180:C:/c_root/electronics/DAVE_work_2019/pocket-nim/Libraries/XMCLib/inc\xmc_gpio.h ****  *
 181:C:/c_root/electronics/DAVE_work_2019/pocket-nim/Libraries/XMCLib/inc\xmc_gpio.h ****  *
 182:C:/c_root/electronics/DAVE_work_2019/pocket-nim/Libraries/XMCLib/inc\xmc_gpio.h ****  */
 183:C:/c_root/electronics/DAVE_work_2019/pocket-nim/Libraries/XMCLib/inc\xmc_gpio.h **** 
 184:C:/c_root/electronics/DAVE_work_2019/pocket-nim/Libraries/XMCLib/inc\xmc_gpio.h ****  
 185:C:/c_root/electronics/DAVE_work_2019/pocket-nim/Libraries/XMCLib/inc\xmc_gpio.h **** void XMC_GPIO_Init(XMC_GPIO_PORT_t *const port, const uint8_t pin, const XMC_GPIO_CONFIG_t *const c
 186:C:/c_root/electronics/DAVE_work_2019/pocket-nim/Libraries/XMCLib/inc\xmc_gpio.h ****  
 187:C:/c_root/electronics/DAVE_work_2019/pocket-nim/Libraries/XMCLib/inc\xmc_gpio.h **** /**
 188:C:/c_root/electronics/DAVE_work_2019/pocket-nim/Libraries/XMCLib/inc\xmc_gpio.h ****  *
 189:C:/c_root/electronics/DAVE_work_2019/pocket-nim/Libraries/XMCLib/inc\xmc_gpio.h ****  * @param  port	Constant pointer pointing to GPIO port, to access hardware register Pn_IOCR.
 190:C:/c_root/electronics/DAVE_work_2019/pocket-nim/Libraries/XMCLib/inc\xmc_gpio.h ****  * @param  pin	Port pin number.
 191:C:/c_root/electronics/DAVE_work_2019/pocket-nim/Libraries/XMCLib/inc\xmc_gpio.h ****  * @param  mode input / output functionality selection. Refer @ref XMC_GPIO_MODE_t for valid values
 192:C:/c_root/electronics/DAVE_work_2019/pocket-nim/Libraries/XMCLib/inc\xmc_gpio.h ****  *
 193:C:/c_root/electronics/DAVE_work_2019/pocket-nim/Libraries/XMCLib/inc\xmc_gpio.h ****  * @return None
 194:C:/c_root/electronics/DAVE_work_2019/pocket-nim/Libraries/XMCLib/inc\xmc_gpio.h ****  *
 195:C:/c_root/electronics/DAVE_work_2019/pocket-nim/Libraries/XMCLib/inc\xmc_gpio.h ****  * \par<b>Description:</b><br>
 196:C:/c_root/electronics/DAVE_work_2019/pocket-nim/Libraries/XMCLib/inc\xmc_gpio.h ****  * Sets digital input and output driver functionality and characteristics of a GPIO port pin. It co
 197:C:/c_root/electronics/DAVE_work_2019/pocket-nim/Libraries/XMCLib/inc\xmc_gpio.h ****  * registers Pn_IOCR. \a mode is initially configured during initialization in XMC_GPIO_Init(). Cal
 198:C:/c_root/electronics/DAVE_work_2019/pocket-nim/Libraries/XMCLib/inc\xmc_gpio.h ****  * the port direction functionality as needed later in the program.
 199:C:/c_root/electronics/DAVE_work_2019/pocket-nim/Libraries/XMCLib/inc\xmc_gpio.h ****  *
 200:C:/c_root/electronics/DAVE_work_2019/pocket-nim/Libraries/XMCLib/inc\xmc_gpio.h ****  * \par<b>Related APIs:</b><BR>
 201:C:/c_root/electronics/DAVE_work_2019/pocket-nim/Libraries/XMCLib/inc\xmc_gpio.h ****  *  None
 202:C:/c_root/electronics/DAVE_work_2019/pocket-nim/Libraries/XMCLib/inc\xmc_gpio.h ****  *
 203:C:/c_root/electronics/DAVE_work_2019/pocket-nim/Libraries/XMCLib/inc\xmc_gpio.h ****  */
 204:C:/c_root/electronics/DAVE_work_2019/pocket-nim/Libraries/XMCLib/inc\xmc_gpio.h **** 
 205:C:/c_root/electronics/DAVE_work_2019/pocket-nim/Libraries/XMCLib/inc\xmc_gpio.h **** void XMC_GPIO_SetMode(XMC_GPIO_PORT_t *const port, const uint8_t pin, const XMC_GPIO_MODE_t mode);
 206:C:/c_root/electronics/DAVE_work_2019/pocket-nim/Libraries/XMCLib/inc\xmc_gpio.h **** 
 207:C:/c_root/electronics/DAVE_work_2019/pocket-nim/Libraries/XMCLib/inc\xmc_gpio.h **** 
 208:C:/c_root/electronics/DAVE_work_2019/pocket-nim/Libraries/XMCLib/inc\xmc_gpio.h **** /**
 209:C:/c_root/electronics/DAVE_work_2019/pocket-nim/Libraries/XMCLib/inc\xmc_gpio.h ****  *
 210:C:/c_root/electronics/DAVE_work_2019/pocket-nim/Libraries/XMCLib/inc\xmc_gpio.h ****  * @param  port	 Constant pointer pointing to GPIO port, to access hardware register Pn_OMR.
 211:C:/c_root/electronics/DAVE_work_2019/pocket-nim/Libraries/XMCLib/inc\xmc_gpio.h ****  * @param  pin	 Port pin number.
 212:C:/c_root/electronics/DAVE_work_2019/pocket-nim/Libraries/XMCLib/inc\xmc_gpio.h ****  * @param  level output level selection. Refer @ref XMC_GPIO_OUTPUT_LEVEL_t for valid values.
 213:C:/c_root/electronics/DAVE_work_2019/pocket-nim/Libraries/XMCLib/inc\xmc_gpio.h ****  *
 214:C:/c_root/electronics/DAVE_work_2019/pocket-nim/Libraries/XMCLib/inc\xmc_gpio.h ****  * @return None
 215:C:/c_root/electronics/DAVE_work_2019/pocket-nim/Libraries/XMCLib/inc\xmc_gpio.h ****  *
 216:C:/c_root/electronics/DAVE_work_2019/pocket-nim/Libraries/XMCLib/inc\xmc_gpio.h ****  * \par<b>Description:</b><br>
 217:C:/c_root/electronics/DAVE_work_2019/pocket-nim/Libraries/XMCLib/inc\xmc_gpio.h ****  * Set port pin output level to high or low.It configures hardware registers Pn_OMR.\a level is ini
 218:C:/c_root/electronics/DAVE_work_2019/pocket-nim/Libraries/XMCLib/inc\xmc_gpio.h ****  * configured during initialization in XMC_GPIO_Init(). Call this API to alter output level as need
 219:C:/c_root/electronics/DAVE_work_2019/pocket-nim/Libraries/XMCLib/inc\xmc_gpio.h ****  *
 220:C:/c_root/electronics/DAVE_work_2019/pocket-nim/Libraries/XMCLib/inc\xmc_gpio.h ****  * \par<b>Related APIs:</b><BR>
 221:C:/c_root/electronics/DAVE_work_2019/pocket-nim/Libraries/XMCLib/inc\xmc_gpio.h ****  *  XMC_GPIO_SetOutputHigh(), XMC_GPIO_SetOutputLow().
 222:C:/c_root/electronics/DAVE_work_2019/pocket-nim/Libraries/XMCLib/inc\xmc_gpio.h ****  *
 223:C:/c_root/electronics/DAVE_work_2019/pocket-nim/Libraries/XMCLib/inc\xmc_gpio.h ****  * \par<b>Note:</b><br>
 224:C:/c_root/electronics/DAVE_work_2019/pocket-nim/Libraries/XMCLib/inc\xmc_gpio.h ****  * Prior to this api, user has to configure port pin to output mode using XMC_GPIO_SetMode().
 225:C:/c_root/electronics/DAVE_work_2019/pocket-nim/Libraries/XMCLib/inc\xmc_gpio.h ****  *
 226:C:/c_root/electronics/DAVE_work_2019/pocket-nim/Libraries/XMCLib/inc\xmc_gpio.h ****  */
 227:C:/c_root/electronics/DAVE_work_2019/pocket-nim/Libraries/XMCLib/inc\xmc_gpio.h **** 
 228:C:/c_root/electronics/DAVE_work_2019/pocket-nim/Libraries/XMCLib/inc\xmc_gpio.h **** 
 229:C:/c_root/electronics/DAVE_work_2019/pocket-nim/Libraries/XMCLib/inc\xmc_gpio.h **** __STATIC_INLINE void XMC_GPIO_SetOutputLevel(XMC_GPIO_PORT_t *const port, const uint8_t pin, const 
 230:C:/c_root/electronics/DAVE_work_2019/pocket-nim/Libraries/XMCLib/inc\xmc_gpio.h **** {
 231:C:/c_root/electronics/DAVE_work_2019/pocket-nim/Libraries/XMCLib/inc\xmc_gpio.h ****   XMC_ASSERT("XMC_GPIO_SetOutputLevel: Invalid port", XMC_GPIO_CHECK_OUTPUT_PORT(port));
 232:C:/c_root/electronics/DAVE_work_2019/pocket-nim/Libraries/XMCLib/inc\xmc_gpio.h ****   XMC_ASSERT("XMC_GPIO_SetOutputLevel: Invalid output level", XMC_GPIO_CHECK_OUTPUT_LEVEL(level));
 233:C:/c_root/electronics/DAVE_work_2019/pocket-nim/Libraries/XMCLib/inc\xmc_gpio.h ****   
 234:C:/c_root/electronics/DAVE_work_2019/pocket-nim/Libraries/XMCLib/inc\xmc_gpio.h ****   port->OMR = (uint32_t)level << pin;
 235:C:/c_root/electronics/DAVE_work_2019/pocket-nim/Libraries/XMCLib/inc\xmc_gpio.h **** }
 236:C:/c_root/electronics/DAVE_work_2019/pocket-nim/Libraries/XMCLib/inc\xmc_gpio.h **** 
 237:C:/c_root/electronics/DAVE_work_2019/pocket-nim/Libraries/XMCLib/inc\xmc_gpio.h **** 
 238:C:/c_root/electronics/DAVE_work_2019/pocket-nim/Libraries/XMCLib/inc\xmc_gpio.h **** /**
 239:C:/c_root/electronics/DAVE_work_2019/pocket-nim/Libraries/XMCLib/inc\xmc_gpio.h ****  * @param  port constant pointer pointing to GPIO port, to access hardware register Pn_OMR.
 240:C:/c_root/electronics/DAVE_work_2019/pocket-nim/Libraries/XMCLib/inc\xmc_gpio.h ****  * @param  pin	Port pin number.
 241:C:/c_root/electronics/DAVE_work_2019/pocket-nim/Libraries/XMCLib/inc\xmc_gpio.h ****  *
 242:C:/c_root/electronics/DAVE_work_2019/pocket-nim/Libraries/XMCLib/inc\xmc_gpio.h ****  * @return None
 243:C:/c_root/electronics/DAVE_work_2019/pocket-nim/Libraries/XMCLib/inc\xmc_gpio.h ****  *
 244:C:/c_root/electronics/DAVE_work_2019/pocket-nim/Libraries/XMCLib/inc\xmc_gpio.h ****  * \par<b>Description:</b><br>
 245:C:/c_root/electronics/DAVE_work_2019/pocket-nim/Libraries/XMCLib/inc\xmc_gpio.h ****  *  Sets port pin output to high. It configures hardware registers Pn_OMR.
 246:C:/c_root/electronics/DAVE_work_2019/pocket-nim/Libraries/XMCLib/inc\xmc_gpio.h ****  *
 247:C:/c_root/electronics/DAVE_work_2019/pocket-nim/Libraries/XMCLib/inc\xmc_gpio.h ****  *  \par<b>Related APIs:</b><BR>
 248:C:/c_root/electronics/DAVE_work_2019/pocket-nim/Libraries/XMCLib/inc\xmc_gpio.h ****  *  XMC_GPIO_SetOutputLow()
 249:C:/c_root/electronics/DAVE_work_2019/pocket-nim/Libraries/XMCLib/inc\xmc_gpio.h ****  *
 250:C:/c_root/electronics/DAVE_work_2019/pocket-nim/Libraries/XMCLib/inc\xmc_gpio.h ****  * \par<b>Note:</b><br>
 251:C:/c_root/electronics/DAVE_work_2019/pocket-nim/Libraries/XMCLib/inc\xmc_gpio.h ****  * Prior to this api, user has to configure port pin to output mode using XMC_GPIO_SetMode().\n
 252:C:/c_root/electronics/DAVE_work_2019/pocket-nim/Libraries/XMCLib/inc\xmc_gpio.h ****  * Register Pn_OMR is virtual and does not contain any flip-flop. A read action delivers the value 
 253:C:/c_root/electronics/DAVE_work_2019/pocket-nim/Libraries/XMCLib/inc\xmc_gpio.h ****  *
 254:C:/c_root/electronics/DAVE_work_2019/pocket-nim/Libraries/XMCLib/inc\xmc_gpio.h ****  */
 255:C:/c_root/electronics/DAVE_work_2019/pocket-nim/Libraries/XMCLib/inc\xmc_gpio.h **** 
 256:C:/c_root/electronics/DAVE_work_2019/pocket-nim/Libraries/XMCLib/inc\xmc_gpio.h **** __STATIC_INLINE void XMC_GPIO_SetOutputHigh(XMC_GPIO_PORT_t *const port, const uint8_t pin)
 257:C:/c_root/electronics/DAVE_work_2019/pocket-nim/Libraries/XMCLib/inc\xmc_gpio.h **** {
  25              	 .loc 1 257 0
  26              	 .cfi_startproc
  27 0000 80B5     	 push {r7,lr}
  28              	.LCFI0:
  29              	 .cfi_def_cfa_offset 8
  30              	 .cfi_offset 7,-8
  31              	 .cfi_offset 14,-4
  32 0002 82B0     	 sub sp,sp,#8
  33              	.LCFI1:
  34              	 .cfi_def_cfa_offset 16
  35 0004 00AF     	 add r7,sp,#0
  36              	.LCFI2:
  37              	 .cfi_def_cfa_register 7
  38 0006 7860     	 str r0,[r7,#4]
  39 0008 0A1C     	 mov r2,r1
  40 000a FB1C     	 add r3,r7,#3
  41 000c 1A70     	 strb r2,[r3]
 258:C:/c_root/electronics/DAVE_work_2019/pocket-nim/Libraries/XMCLib/inc\xmc_gpio.h ****   XMC_ASSERT("XMC_GPIO_SetOutputHigh: Invalid port", XMC_GPIO_CHECK_OUTPUT_PORT(port));
 259:C:/c_root/electronics/DAVE_work_2019/pocket-nim/Libraries/XMCLib/inc\xmc_gpio.h **** 
 260:C:/c_root/electronics/DAVE_work_2019/pocket-nim/Libraries/XMCLib/inc\xmc_gpio.h ****   port->OMR = (uint32_t)0x1U << pin;
  42              	 .loc 1 260 0
  43 000e FB1C     	 add r3,r7,#3
  44 0010 1B78     	 ldrb r3,[r3]
  45 0012 0122     	 mov r2,#1
  46 0014 9A40     	 lsl r2,r2,r3
  47 0016 7B68     	 ldr r3,[r7,#4]
  48 0018 5A60     	 str r2,[r3,#4]
 261:C:/c_root/electronics/DAVE_work_2019/pocket-nim/Libraries/XMCLib/inc\xmc_gpio.h **** }
  49              	 .loc 1 261 0
  50 001a BD46     	 mov sp,r7
  51 001c 02B0     	 add sp,sp,#8
  52              	 
  53 001e 80BD     	 pop {r7,pc}
  54              	 .cfi_endproc
  55              	.LFE52:
  57              	 .section .text.XMC_GPIO_SetOutputLow,"ax",%progbits
  58              	 .align 2
  59              	 .code 16
  60              	 .thumb_func
  62              	XMC_GPIO_SetOutputLow:
  63              	.LFB53:
 262:C:/c_root/electronics/DAVE_work_2019/pocket-nim/Libraries/XMCLib/inc\xmc_gpio.h **** 
 263:C:/c_root/electronics/DAVE_work_2019/pocket-nim/Libraries/XMCLib/inc\xmc_gpio.h **** /**
 264:C:/c_root/electronics/DAVE_work_2019/pocket-nim/Libraries/XMCLib/inc\xmc_gpio.h ****  *
 265:C:/c_root/electronics/DAVE_work_2019/pocket-nim/Libraries/XMCLib/inc\xmc_gpio.h ****  * @param  port	constant pointer pointing to GPIO port, to access hardware register Pn_OMR.
 266:C:/c_root/electronics/DAVE_work_2019/pocket-nim/Libraries/XMCLib/inc\xmc_gpio.h ****  * @param  pin	port pin number.
 267:C:/c_root/electronics/DAVE_work_2019/pocket-nim/Libraries/XMCLib/inc\xmc_gpio.h ****  *
 268:C:/c_root/electronics/DAVE_work_2019/pocket-nim/Libraries/XMCLib/inc\xmc_gpio.h ****  * @return  None
 269:C:/c_root/electronics/DAVE_work_2019/pocket-nim/Libraries/XMCLib/inc\xmc_gpio.h ****  *
 270:C:/c_root/electronics/DAVE_work_2019/pocket-nim/Libraries/XMCLib/inc\xmc_gpio.h ****  *\par<b>Description:</b><br>
 271:C:/c_root/electronics/DAVE_work_2019/pocket-nim/Libraries/XMCLib/inc\xmc_gpio.h ****  * Sets port pin output to low. It configures hardware registers Pn_OMR.\n
 272:C:/c_root/electronics/DAVE_work_2019/pocket-nim/Libraries/XMCLib/inc\xmc_gpio.h ****  *
 273:C:/c_root/electronics/DAVE_work_2019/pocket-nim/Libraries/XMCLib/inc\xmc_gpio.h ****  * \par<b>Related APIs:</b><BR>>
 274:C:/c_root/electronics/DAVE_work_2019/pocket-nim/Libraries/XMCLib/inc\xmc_gpio.h ****  * XMC_GPIO_SetOutputHigh()
 275:C:/c_root/electronics/DAVE_work_2019/pocket-nim/Libraries/XMCLib/inc\xmc_gpio.h ****  *
 276:C:/c_root/electronics/DAVE_work_2019/pocket-nim/Libraries/XMCLib/inc\xmc_gpio.h ****  *\par<b>Note:</b><br>
 277:C:/c_root/electronics/DAVE_work_2019/pocket-nim/Libraries/XMCLib/inc\xmc_gpio.h ****  * Prior to this api, user has to configure port pin to output mode using XMC_GPIO_SetMode().
 278:C:/c_root/electronics/DAVE_work_2019/pocket-nim/Libraries/XMCLib/inc\xmc_gpio.h ****  * Register Pn_OMR is virtual and does not contain any flip-flop. A read action delivers the value 
 279:C:/c_root/electronics/DAVE_work_2019/pocket-nim/Libraries/XMCLib/inc\xmc_gpio.h ****  *
 280:C:/c_root/electronics/DAVE_work_2019/pocket-nim/Libraries/XMCLib/inc\xmc_gpio.h ****  */
 281:C:/c_root/electronics/DAVE_work_2019/pocket-nim/Libraries/XMCLib/inc\xmc_gpio.h **** 
 282:C:/c_root/electronics/DAVE_work_2019/pocket-nim/Libraries/XMCLib/inc\xmc_gpio.h **** __STATIC_INLINE void XMC_GPIO_SetOutputLow(XMC_GPIO_PORT_t *const port, const uint8_t pin)
 283:C:/c_root/electronics/DAVE_work_2019/pocket-nim/Libraries/XMCLib/inc\xmc_gpio.h **** {
  64              	 .loc 1 283 0
  65              	 .cfi_startproc
  66 0000 80B5     	 push {r7,lr}
  67              	.LCFI3:
  68              	 .cfi_def_cfa_offset 8
  69              	 .cfi_offset 7,-8
  70              	 .cfi_offset 14,-4
  71 0002 82B0     	 sub sp,sp,#8
  72              	.LCFI4:
  73              	 .cfi_def_cfa_offset 16
  74 0004 00AF     	 add r7,sp,#0
  75              	.LCFI5:
  76              	 .cfi_def_cfa_register 7
  77 0006 7860     	 str r0,[r7,#4]
  78 0008 0A1C     	 mov r2,r1
  79 000a FB1C     	 add r3,r7,#3
  80 000c 1A70     	 strb r2,[r3]
 284:C:/c_root/electronics/DAVE_work_2019/pocket-nim/Libraries/XMCLib/inc\xmc_gpio.h ****   XMC_ASSERT("XMC_GPIO_SetOutputLow: Invalid port", XMC_GPIO_CHECK_OUTPUT_PORT(port));
 285:C:/c_root/electronics/DAVE_work_2019/pocket-nim/Libraries/XMCLib/inc\xmc_gpio.h **** 
 286:C:/c_root/electronics/DAVE_work_2019/pocket-nim/Libraries/XMCLib/inc\xmc_gpio.h ****   port->OMR = 0x10000U << pin;
  81              	 .loc 1 286 0
  82 000e FB1C     	 add r3,r7,#3
  83 0010 1B78     	 ldrb r3,[r3]
  84 0012 8022     	 mov r2,#128
  85 0014 5202     	 lsl r2,r2,#9
  86 0016 9A40     	 lsl r2,r2,r3
  87 0018 7B68     	 ldr r3,[r7,#4]
  88 001a 5A60     	 str r2,[r3,#4]
 287:C:/c_root/electronics/DAVE_work_2019/pocket-nim/Libraries/XMCLib/inc\xmc_gpio.h **** }
  89              	 .loc 1 287 0
  90 001c BD46     	 mov sp,r7
  91 001e 02B0     	 add sp,sp,#8
  92              	 
  93 0020 80BD     	 pop {r7,pc}
  94              	 .cfi_endproc
  95              	.LFE53:
  97 0022 C046     	 .section .text.XMC_GPIO_ToggleOutput,"ax",%progbits
  98              	 .align 2
  99              	 .code 16
 100              	 .thumb_func
 102              	XMC_GPIO_ToggleOutput:
 103              	.LFB54:
 288:C:/c_root/electronics/DAVE_work_2019/pocket-nim/Libraries/XMCLib/inc\xmc_gpio.h **** 
 289:C:/c_root/electronics/DAVE_work_2019/pocket-nim/Libraries/XMCLib/inc\xmc_gpio.h **** /**
 290:C:/c_root/electronics/DAVE_work_2019/pocket-nim/Libraries/XMCLib/inc\xmc_gpio.h ****  *
 291:C:/c_root/electronics/DAVE_work_2019/pocket-nim/Libraries/XMCLib/inc\xmc_gpio.h ****  * @param port constant pointer pointing to GPIO port, to access hardware register Pn_OMR.
 292:C:/c_root/electronics/DAVE_work_2019/pocket-nim/Libraries/XMCLib/inc\xmc_gpio.h ****  * @param pin  port pin number.
 293:C:/c_root/electronics/DAVE_work_2019/pocket-nim/Libraries/XMCLib/inc\xmc_gpio.h ****  *
 294:C:/c_root/electronics/DAVE_work_2019/pocket-nim/Libraries/XMCLib/inc\xmc_gpio.h ****  * @return None
 295:C:/c_root/electronics/DAVE_work_2019/pocket-nim/Libraries/XMCLib/inc\xmc_gpio.h ****  *
 296:C:/c_root/electronics/DAVE_work_2019/pocket-nim/Libraries/XMCLib/inc\xmc_gpio.h ****  * \par<b>Description:</b><br>
 297:C:/c_root/electronics/DAVE_work_2019/pocket-nim/Libraries/XMCLib/inc\xmc_gpio.h ****  * Configures port pin output to Toggle. It configures hardware registers Pn_OMR.
 298:C:/c_root/electronics/DAVE_work_2019/pocket-nim/Libraries/XMCLib/inc\xmc_gpio.h ****  *
 299:C:/c_root/electronics/DAVE_work_2019/pocket-nim/Libraries/XMCLib/inc\xmc_gpio.h ****  * \par<b>Related APIs:</b><BR>
 300:C:/c_root/electronics/DAVE_work_2019/pocket-nim/Libraries/XMCLib/inc\xmc_gpio.h ****  * XMC_GPIO_SetOutputHigh(), XMC_GPIO_SetOutputLow().
 301:C:/c_root/electronics/DAVE_work_2019/pocket-nim/Libraries/XMCLib/inc\xmc_gpio.h ****  *
 302:C:/c_root/electronics/DAVE_work_2019/pocket-nim/Libraries/XMCLib/inc\xmc_gpio.h ****  * \par<b>Note:</b><br>
 303:C:/c_root/electronics/DAVE_work_2019/pocket-nim/Libraries/XMCLib/inc\xmc_gpio.h ****  * Prior to this api, user has to configure port pin to output mode using XMC_GPIO_SetMode(). Regis
 304:C:/c_root/electronics/DAVE_work_2019/pocket-nim/Libraries/XMCLib/inc\xmc_gpio.h ****  * and does not contain any flip-flop. A read action delivers the value of 0.
 305:C:/c_root/electronics/DAVE_work_2019/pocket-nim/Libraries/XMCLib/inc\xmc_gpio.h ****  *
 306:C:/c_root/electronics/DAVE_work_2019/pocket-nim/Libraries/XMCLib/inc\xmc_gpio.h ****  */
 307:C:/c_root/electronics/DAVE_work_2019/pocket-nim/Libraries/XMCLib/inc\xmc_gpio.h **** 
 308:C:/c_root/electronics/DAVE_work_2019/pocket-nim/Libraries/XMCLib/inc\xmc_gpio.h **** __STATIC_INLINE void XMC_GPIO_ToggleOutput(XMC_GPIO_PORT_t *const port, const uint8_t pin)
 309:C:/c_root/electronics/DAVE_work_2019/pocket-nim/Libraries/XMCLib/inc\xmc_gpio.h **** {
 104              	 .loc 1 309 0
 105              	 .cfi_startproc
 106 0000 80B5     	 push {r7,lr}
 107              	.LCFI6:
 108              	 .cfi_def_cfa_offset 8
 109              	 .cfi_offset 7,-8
 110              	 .cfi_offset 14,-4
 111 0002 82B0     	 sub sp,sp,#8
 112              	.LCFI7:
 113              	 .cfi_def_cfa_offset 16
 114 0004 00AF     	 add r7,sp,#0
 115              	.LCFI8:
 116              	 .cfi_def_cfa_register 7
 117 0006 7860     	 str r0,[r7,#4]
 118 0008 0A1C     	 mov r2,r1
 119 000a FB1C     	 add r3,r7,#3
 120 000c 1A70     	 strb r2,[r3]
 310:C:/c_root/electronics/DAVE_work_2019/pocket-nim/Libraries/XMCLib/inc\xmc_gpio.h ****   XMC_ASSERT("XMC_GPIO_ToggleOutput: Invalid port", XMC_GPIO_CHECK_OUTPUT_PORT(port));
 311:C:/c_root/electronics/DAVE_work_2019/pocket-nim/Libraries/XMCLib/inc\xmc_gpio.h **** 
 312:C:/c_root/electronics/DAVE_work_2019/pocket-nim/Libraries/XMCLib/inc\xmc_gpio.h ****   port->OMR = 0x10001U << pin;
 121              	 .loc 1 312 0
 122 000e FB1C     	 add r3,r7,#3
 123 0010 1B78     	 ldrb r3,[r3]
 124 0012 034A     	 ldr r2,.L4
 125 0014 9A40     	 lsl r2,r2,r3
 126 0016 7B68     	 ldr r3,[r7,#4]
 127 0018 5A60     	 str r2,[r3,#4]
 313:C:/c_root/electronics/DAVE_work_2019/pocket-nim/Libraries/XMCLib/inc\xmc_gpio.h **** }
 128              	 .loc 1 313 0
 129 001a BD46     	 mov sp,r7
 130 001c 02B0     	 add sp,sp,#8
 131              	 
 132 001e 80BD     	 pop {r7,pc}
 133              	.L5:
 134              	 .align 2
 135              	.L4:
 136 0020 01000100 	 .word 65537
 137              	 .cfi_endproc
 138              	.LFE54:
 140              	 .section .text.XMC_GPIO_GetInput,"ax",%progbits
 141              	 .align 2
 142              	 .code 16
 143              	 .thumb_func
 145              	XMC_GPIO_GetInput:
 146              	.LFB55:
 314:C:/c_root/electronics/DAVE_work_2019/pocket-nim/Libraries/XMCLib/inc\xmc_gpio.h **** 
 315:C:/c_root/electronics/DAVE_work_2019/pocket-nim/Libraries/XMCLib/inc\xmc_gpio.h **** /**
 316:C:/c_root/electronics/DAVE_work_2019/pocket-nim/Libraries/XMCLib/inc\xmc_gpio.h ****  *
 317:C:/c_root/electronics/DAVE_work_2019/pocket-nim/Libraries/XMCLib/inc\xmc_gpio.h ****  * @param port constant pointer pointing to GPIO port, to access hardware register Pn_IN.
 318:C:/c_root/electronics/DAVE_work_2019/pocket-nim/Libraries/XMCLib/inc\xmc_gpio.h ****  * @param pin  Port pin number.
 319:C:/c_root/electronics/DAVE_work_2019/pocket-nim/Libraries/XMCLib/inc\xmc_gpio.h ****  *
 320:C:/c_root/electronics/DAVE_work_2019/pocket-nim/Libraries/XMCLib/inc\xmc_gpio.h ****  * @return uint32_t pin logic level status.
 321:C:/c_root/electronics/DAVE_work_2019/pocket-nim/Libraries/XMCLib/inc\xmc_gpio.h ****  *
 322:C:/c_root/electronics/DAVE_work_2019/pocket-nim/Libraries/XMCLib/inc\xmc_gpio.h ****  *\par<b>Description:</b><br>
 323:C:/c_root/electronics/DAVE_work_2019/pocket-nim/Libraries/XMCLib/inc\xmc_gpio.h ****  * Reads the Pn_IN register and returns the current logical value at the GPIO pin.
 324:C:/c_root/electronics/DAVE_work_2019/pocket-nim/Libraries/XMCLib/inc\xmc_gpio.h ****  *
 325:C:/c_root/electronics/DAVE_work_2019/pocket-nim/Libraries/XMCLib/inc\xmc_gpio.h ****  * \par<b>Related APIs:</b><BR>
 326:C:/c_root/electronics/DAVE_work_2019/pocket-nim/Libraries/XMCLib/inc\xmc_gpio.h ****  * None
 327:C:/c_root/electronics/DAVE_work_2019/pocket-nim/Libraries/XMCLib/inc\xmc_gpio.h ****  *
 328:C:/c_root/electronics/DAVE_work_2019/pocket-nim/Libraries/XMCLib/inc\xmc_gpio.h ****  * \par<b>Note:</b><br>
 329:C:/c_root/electronics/DAVE_work_2019/pocket-nim/Libraries/XMCLib/inc\xmc_gpio.h ****  * Prior to this api, user has to configure port pin to input mode using XMC_GPIO_SetMode().
 330:C:/c_root/electronics/DAVE_work_2019/pocket-nim/Libraries/XMCLib/inc\xmc_gpio.h ****  *
 331:C:/c_root/electronics/DAVE_work_2019/pocket-nim/Libraries/XMCLib/inc\xmc_gpio.h ****  */
 332:C:/c_root/electronics/DAVE_work_2019/pocket-nim/Libraries/XMCLib/inc\xmc_gpio.h **** 
 333:C:/c_root/electronics/DAVE_work_2019/pocket-nim/Libraries/XMCLib/inc\xmc_gpio.h **** __STATIC_INLINE uint32_t XMC_GPIO_GetInput(XMC_GPIO_PORT_t *const port, const uint8_t pin)
 334:C:/c_root/electronics/DAVE_work_2019/pocket-nim/Libraries/XMCLib/inc\xmc_gpio.h **** {
 147              	 .loc 1 334 0
 148              	 .cfi_startproc
 149 0000 80B5     	 push {r7,lr}
 150              	.LCFI9:
 151              	 .cfi_def_cfa_offset 8
 152              	 .cfi_offset 7,-8
 153              	 .cfi_offset 14,-4
 154 0002 82B0     	 sub sp,sp,#8
 155              	.LCFI10:
 156              	 .cfi_def_cfa_offset 16
 157 0004 00AF     	 add r7,sp,#0
 158              	.LCFI11:
 159              	 .cfi_def_cfa_register 7
 160 0006 7860     	 str r0,[r7,#4]
 161 0008 0A1C     	 mov r2,r1
 162 000a FB1C     	 add r3,r7,#3
 163 000c 1A70     	 strb r2,[r3]
 335:C:/c_root/electronics/DAVE_work_2019/pocket-nim/Libraries/XMCLib/inc\xmc_gpio.h ****   XMC_ASSERT("XMC_GPIO_GetInput: Invalid port", XMC_GPIO_CHECK_PORT(port));
 336:C:/c_root/electronics/DAVE_work_2019/pocket-nim/Libraries/XMCLib/inc\xmc_gpio.h **** 
 337:C:/c_root/electronics/DAVE_work_2019/pocket-nim/Libraries/XMCLib/inc\xmc_gpio.h ****   return (((port->IN) >> pin) & 0x1U);
 164              	 .loc 1 337 0
 165 000e 7B68     	 ldr r3,[r7,#4]
 166 0010 5A6A     	 ldr r2,[r3,#36]
 167 0012 FB1C     	 add r3,r7,#3
 168 0014 1B78     	 ldrb r3,[r3]
 169 0016 DA40     	 lsr r2,r2,r3
 170 0018 131C     	 mov r3,r2
 171 001a 0122     	 mov r2,#1
 172 001c 1340     	 and r3,r2
 338:C:/c_root/electronics/DAVE_work_2019/pocket-nim/Libraries/XMCLib/inc\xmc_gpio.h **** }
 173              	 .loc 1 338 0
 174 001e 181C     	 mov r0,r3
 175 0020 BD46     	 mov sp,r7
 176 0022 02B0     	 add sp,sp,#8
 177              	 
 178 0024 80BD     	 pop {r7,pc}
 179              	 .cfi_endproc
 180              	.LFE55:
 182 0026 C046     	 .section .text.I2C_MASTER_TransmitByte,"ax",%progbits
 183              	 .align 2
 184              	 .code 16
 185              	 .thumb_func
 187              	I2C_MASTER_TransmitByte:
 188              	.LFB140:
 189              	 .file 2 "C:/c_root/electronics/DAVE_work_2019/pocket-nim/Dave/Generated/I2C_MASTER/i2c_master.h"
   1:C:/c_root/electronics/DAVE_work_2019/pocket-nim/Dave/Generated/I2C_MASTER\i2c_master.h **** /**
   2:C:/c_root/electronics/DAVE_work_2019/pocket-nim/Dave/Generated/I2C_MASTER\i2c_master.h ****  * @file i2c_master.h
   3:C:/c_root/electronics/DAVE_work_2019/pocket-nim/Dave/Generated/I2C_MASTER\i2c_master.h ****  * @date 2015-10-20
   4:C:/c_root/electronics/DAVE_work_2019/pocket-nim/Dave/Generated/I2C_MASTER\i2c_master.h ****  *
   5:C:/c_root/electronics/DAVE_work_2019/pocket-nim/Dave/Generated/I2C_MASTER\i2c_master.h ****  * NOTE:
   6:C:/c_root/electronics/DAVE_work_2019/pocket-nim/Dave/Generated/I2C_MASTER\i2c_master.h ****  * This file is generated by DAVE. Any manual modification done to this file will be lost when the 
   7:C:/c_root/electronics/DAVE_work_2019/pocket-nim/Dave/Generated/I2C_MASTER\i2c_master.h ****  * regenerated.
   8:C:/c_root/electronics/DAVE_work_2019/pocket-nim/Dave/Generated/I2C_MASTER\i2c_master.h ****  */
   9:C:/c_root/electronics/DAVE_work_2019/pocket-nim/Dave/Generated/I2C_MASTER\i2c_master.h **** /**
  10:C:/c_root/electronics/DAVE_work_2019/pocket-nim/Dave/Generated/I2C_MASTER\i2c_master.h ****  * @cond
  11:C:/c_root/electronics/DAVE_work_2019/pocket-nim/Dave/Generated/I2C_MASTER\i2c_master.h ****  **************************************************************************************************
  12:C:/c_root/electronics/DAVE_work_2019/pocket-nim/Dave/Generated/I2C_MASTER\i2c_master.h ****  * I2C_MASTER v4.1.18 Configures USIC channel to transmit & receive data using I2C protocol.
  13:C:/c_root/electronics/DAVE_work_2019/pocket-nim/Dave/Generated/I2C_MASTER\i2c_master.h ****  *
  14:C:/c_root/electronics/DAVE_work_2019/pocket-nim/Dave/Generated/I2C_MASTER\i2c_master.h ****  * Copyright (c) 2015-2016, Infineon Technologies AG
  15:C:/c_root/electronics/DAVE_work_2019/pocket-nim/Dave/Generated/I2C_MASTER\i2c_master.h ****  * All rights reserved.
  16:C:/c_root/electronics/DAVE_work_2019/pocket-nim/Dave/Generated/I2C_MASTER\i2c_master.h ****  *
  17:C:/c_root/electronics/DAVE_work_2019/pocket-nim/Dave/Generated/I2C_MASTER\i2c_master.h ****  * Redistribution and use in source and binary forms, with or without modification,are permitted pr
  18:C:/c_root/electronics/DAVE_work_2019/pocket-nim/Dave/Generated/I2C_MASTER\i2c_master.h ****  * following conditions are met:
  19:C:/c_root/electronics/DAVE_work_2019/pocket-nim/Dave/Generated/I2C_MASTER\i2c_master.h ****  *
  20:C:/c_root/electronics/DAVE_work_2019/pocket-nim/Dave/Generated/I2C_MASTER\i2c_master.h ****  * Redistributions of source code must retain the above copyright notice, this list of conditions a
  21:C:/c_root/electronics/DAVE_work_2019/pocket-nim/Dave/Generated/I2C_MASTER\i2c_master.h ****  * disclaimer.
  22:C:/c_root/electronics/DAVE_work_2019/pocket-nim/Dave/Generated/I2C_MASTER\i2c_master.h ****  *
  23:C:/c_root/electronics/DAVE_work_2019/pocket-nim/Dave/Generated/I2C_MASTER\i2c_master.h ****  * Redistributions in binary form must reproduce the above copyright notice, this list of condition
  24:C:/c_root/electronics/DAVE_work_2019/pocket-nim/Dave/Generated/I2C_MASTER\i2c_master.h ****  * following disclaimer in the documentation and/or other materials provided with the distribution.
  25:C:/c_root/electronics/DAVE_work_2019/pocket-nim/Dave/Generated/I2C_MASTER\i2c_master.h ****  *
  26:C:/c_root/electronics/DAVE_work_2019/pocket-nim/Dave/Generated/I2C_MASTER\i2c_master.h ****  * Neither the name of the copyright holders nor the names of its contributors may be used to endor
  27:C:/c_root/electronics/DAVE_work_2019/pocket-nim/Dave/Generated/I2C_MASTER\i2c_master.h ****  * products derived from this software without specific prior written permission.
  28:C:/c_root/electronics/DAVE_work_2019/pocket-nim/Dave/Generated/I2C_MASTER\i2c_master.h ****  *
  29:C:/c_root/electronics/DAVE_work_2019/pocket-nim/Dave/Generated/I2C_MASTER\i2c_master.h ****  * THIS SOFTWARE IS PROVIDED BY THE COPYRIGHT HOLDERS AND CONTRIBUTORS "AS IS" AND ANY EXPRESS OR I
  30:C:/c_root/electronics/DAVE_work_2019/pocket-nim/Dave/Generated/I2C_MASTER\i2c_master.h ****  * INCLUDING, BUT NOT LIMITED TO, THE IMPLIED WARRANTIES OF MERCHANTABILITY AND FITNESS FOR A PARTI
  31:C:/c_root/electronics/DAVE_work_2019/pocket-nim/Dave/Generated/I2C_MASTER\i2c_master.h ****  * DISCLAIMED. IN NO EVENT SHALL THE COPYRIGHT HOLDER OR CONTRIBUTORS BE LIABLE  FOR ANY DIRECT, IN
  32:C:/c_root/electronics/DAVE_work_2019/pocket-nim/Dave/Generated/I2C_MASTER\i2c_master.h ****  * SPECIAL, EXEMPLARY, OR CONSEQUENTIAL DAMAGES (INCLUDING, BUT NOT LIMITED TO, PROCUREMENT OF SUBS
  33:C:/c_root/electronics/DAVE_work_2019/pocket-nim/Dave/Generated/I2C_MASTER\i2c_master.h ****  * SERVICES; LOSS OF USE, DATA, OR PROFITS; OR BUSINESS INTERRUPTION) HOWEVER CAUSED AND ON ANY THE
  34:C:/c_root/electronics/DAVE_work_2019/pocket-nim/Dave/Generated/I2C_MASTER\i2c_master.h ****  * WHETHER IN CONTRACT, STRICT LIABILITY,OR TORT (INCLUDING NEGLIGENCE OR OTHERWISE) ARISING IN ANY
  35:C:/c_root/electronics/DAVE_work_2019/pocket-nim/Dave/Generated/I2C_MASTER\i2c_master.h ****  * USE OF THIS SOFTWARE, EVEN IF ADVISED OF THE POSSIBILITY OF SUCH DAMAGE.
  36:C:/c_root/electronics/DAVE_work_2019/pocket-nim/Dave/Generated/I2C_MASTER\i2c_master.h ****  *
  37:C:/c_root/electronics/DAVE_work_2019/pocket-nim/Dave/Generated/I2C_MASTER\i2c_master.h ****  * To improve the quality of the software, users are encouraged to share modifications, enhancement
  38:C:/c_root/electronics/DAVE_work_2019/pocket-nim/Dave/Generated/I2C_MASTER\i2c_master.h ****  * with Infineon Technologies AG (dave@infineon.com).
  39:C:/c_root/electronics/DAVE_work_2019/pocket-nim/Dave/Generated/I2C_MASTER\i2c_master.h ****  **************************************************************************************************
  40:C:/c_root/electronics/DAVE_work_2019/pocket-nim/Dave/Generated/I2C_MASTER\i2c_master.h ****  *
  41:C:/c_root/electronics/DAVE_work_2019/pocket-nim/Dave/Generated/I2C_MASTER\i2c_master.h ****  * Change History
  42:C:/c_root/electronics/DAVE_work_2019/pocket-nim/Dave/Generated/I2C_MASTER\i2c_master.h ****  * --------------
  43:C:/c_root/electronics/DAVE_work_2019/pocket-nim/Dave/Generated/I2C_MASTER\i2c_master.h ****  *
  44:C:/c_root/electronics/DAVE_work_2019/pocket-nim/Dave/Generated/I2C_MASTER\i2c_master.h ****  * 2015-02-16:
  45:C:/c_root/electronics/DAVE_work_2019/pocket-nim/Dave/Generated/I2C_MASTER\i2c_master.h ****  *     - Initial version<br>
  46:C:/c_root/electronics/DAVE_work_2019/pocket-nim/Dave/Generated/I2C_MASTER\i2c_master.h ****  *
  47:C:/c_root/electronics/DAVE_work_2019/pocket-nim/Dave/Generated/I2C_MASTER\i2c_master.h ****  * 2015-06-10:
  48:C:/c_root/electronics/DAVE_work_2019/pocket-nim/Dave/Generated/I2C_MASTER\i2c_master.h ****  *     - AbortTransmit and AbortReceive API return type modified. <br>
  49:C:/c_root/electronics/DAVE_work_2019/pocket-nim/Dave/Generated/I2C_MASTER\i2c_master.h ****  *
  50:C:/c_root/electronics/DAVE_work_2019/pocket-nim/Dave/Generated/I2C_MASTER\i2c_master.h ****  * 2015-08-31:
  51:C:/c_root/electronics/DAVE_work_2019/pocket-nim/Dave/Generated/I2C_MASTER\i2c_master.h ****  *     - DMA support APIs added
  52:C:/c_root/electronics/DAVE_work_2019/pocket-nim/Dave/Generated/I2C_MASTER\i2c_master.h ****  * 2015-10-20:
  53:C:/c_root/electronics/DAVE_work_2019/pocket-nim/Dave/Generated/I2C_MASTER\i2c_master.h ****  *     - Code snippets updated
  54:C:/c_root/electronics/DAVE_work_2019/pocket-nim/Dave/Generated/I2C_MASTER\i2c_master.h ****  * 2016-08-18:
  55:C:/c_root/electronics/DAVE_work_2019/pocket-nim/Dave/Generated/I2C_MASTER\i2c_master.h ****  *     - Documentation of slave address formatting improved.
  56:C:/c_root/electronics/DAVE_work_2019/pocket-nim/Dave/Generated/I2C_MASTER\i2c_master.h ****  * @endcond
  57:C:/c_root/electronics/DAVE_work_2019/pocket-nim/Dave/Generated/I2C_MASTER\i2c_master.h ****  *
  58:C:/c_root/electronics/DAVE_work_2019/pocket-nim/Dave/Generated/I2C_MASTER\i2c_master.h ****  */
  59:C:/c_root/electronics/DAVE_work_2019/pocket-nim/Dave/Generated/I2C_MASTER\i2c_master.h **** 
  60:C:/c_root/electronics/DAVE_work_2019/pocket-nim/Dave/Generated/I2C_MASTER\i2c_master.h **** #ifndef I2C_MASTER_H
  61:C:/c_root/electronics/DAVE_work_2019/pocket-nim/Dave/Generated/I2C_MASTER\i2c_master.h **** #define I2C_MASTER_H
  62:C:/c_root/electronics/DAVE_work_2019/pocket-nim/Dave/Generated/I2C_MASTER\i2c_master.h **** 
  63:C:/c_root/electronics/DAVE_work_2019/pocket-nim/Dave/Generated/I2C_MASTER\i2c_master.h **** 
  64:C:/c_root/electronics/DAVE_work_2019/pocket-nim/Dave/Generated/I2C_MASTER\i2c_master.h **** 
  65:C:/c_root/electronics/DAVE_work_2019/pocket-nim/Dave/Generated/I2C_MASTER\i2c_master.h **** /**************************************************************************************************
  66:C:/c_root/electronics/DAVE_work_2019/pocket-nim/Dave/Generated/I2C_MASTER\i2c_master.h ****  * HEADER FILES
  67:C:/c_root/electronics/DAVE_work_2019/pocket-nim/Dave/Generated/I2C_MASTER\i2c_master.h ****  **************************************************************************************************
  68:C:/c_root/electronics/DAVE_work_2019/pocket-nim/Dave/Generated/I2C_MASTER\i2c_master.h **** #include <xmc_gpio.h>
  69:C:/c_root/electronics/DAVE_work_2019/pocket-nim/Dave/Generated/I2C_MASTER\i2c_master.h **** #include <xmc_i2c.h>
  70:C:/c_root/electronics/DAVE_work_2019/pocket-nim/Dave/Generated/I2C_MASTER\i2c_master.h **** #include "i2c_master_conf.h"
  71:C:/c_root/electronics/DAVE_work_2019/pocket-nim/Dave/Generated/I2C_MASTER\i2c_master.h **** 
  72:C:/c_root/electronics/DAVE_work_2019/pocket-nim/Dave/Generated/I2C_MASTER\i2c_master.h **** #if(UC_FAMILY == XMC4)
  73:C:/c_root/electronics/DAVE_work_2019/pocket-nim/Dave/Generated/I2C_MASTER\i2c_master.h **** #if ((I2C_MASTER_DMA_TX_ENABLED == 1) || (I2C_MASTER_DMA_RX_ENABLED == 1))
  74:C:/c_root/electronics/DAVE_work_2019/pocket-nim/Dave/Generated/I2C_MASTER\i2c_master.h **** #include "GLOBAL_DMA/global_dma.h"
  75:C:/c_root/electronics/DAVE_work_2019/pocket-nim/Dave/Generated/I2C_MASTER\i2c_master.h **** #endif
  76:C:/c_root/electronics/DAVE_work_2019/pocket-nim/Dave/Generated/I2C_MASTER\i2c_master.h **** #endif
  77:C:/c_root/electronics/DAVE_work_2019/pocket-nim/Dave/Generated/I2C_MASTER\i2c_master.h **** 
  78:C:/c_root/electronics/DAVE_work_2019/pocket-nim/Dave/Generated/I2C_MASTER\i2c_master.h **** #include <DAVE_Common.h>
  79:C:/c_root/electronics/DAVE_work_2019/pocket-nim/Dave/Generated/I2C_MASTER\i2c_master.h **** 
  80:C:/c_root/electronics/DAVE_work_2019/pocket-nim/Dave/Generated/I2C_MASTER\i2c_master.h **** 
  81:C:/c_root/electronics/DAVE_work_2019/pocket-nim/Dave/Generated/I2C_MASTER\i2c_master.h **** typedef void(*i2c_master_fptr_cbhandler)(void);
  82:C:/c_root/electronics/DAVE_work_2019/pocket-nim/Dave/Generated/I2C_MASTER\i2c_master.h **** 
  83:C:/c_root/electronics/DAVE_work_2019/pocket-nim/Dave/Generated/I2C_MASTER\i2c_master.h **** /**************************************************************************************************
  84:C:/c_root/electronics/DAVE_work_2019/pocket-nim/Dave/Generated/I2C_MASTER\i2c_master.h ****  * MACROS
  85:C:/c_root/electronics/DAVE_work_2019/pocket-nim/Dave/Generated/I2C_MASTER\i2c_master.h ****  **************************************************************************************************
  86:C:/c_root/electronics/DAVE_work_2019/pocket-nim/Dave/Generated/I2C_MASTER\i2c_master.h **** #if (!((XMC_LIB_MAJOR_VERSION == 2U) && \
  87:C:/c_root/electronics/DAVE_work_2019/pocket-nim/Dave/Generated/I2C_MASTER\i2c_master.h ****        (XMC_LIB_MINOR_VERSION >= 0U) && \
  88:C:/c_root/electronics/DAVE_work_2019/pocket-nim/Dave/Generated/I2C_MASTER\i2c_master.h ****        (XMC_LIB_PATCH_VERSION >= 0U)))
  89:C:/c_root/electronics/DAVE_work_2019/pocket-nim/Dave/Generated/I2C_MASTER\i2c_master.h **** #error "I2C_MASTER requires XMC Peripheral Library v2.0.0 or higher"
  90:C:/c_root/electronics/DAVE_work_2019/pocket-nim/Dave/Generated/I2C_MASTER\i2c_master.h **** #endif
  91:C:/c_root/electronics/DAVE_work_2019/pocket-nim/Dave/Generated/I2C_MASTER\i2c_master.h **** 
  92:C:/c_root/electronics/DAVE_work_2019/pocket-nim/Dave/Generated/I2C_MASTER\i2c_master.h **** /**************************************************************************************************
  93:C:/c_root/electronics/DAVE_work_2019/pocket-nim/Dave/Generated/I2C_MASTER\i2c_master.h ****  * ENUMS
  94:C:/c_root/electronics/DAVE_work_2019/pocket-nim/Dave/Generated/I2C_MASTER\i2c_master.h ****  **************************************************************************************************
  95:C:/c_root/electronics/DAVE_work_2019/pocket-nim/Dave/Generated/I2C_MASTER\i2c_master.h **** /**
  96:C:/c_root/electronics/DAVE_work_2019/pocket-nim/Dave/Generated/I2C_MASTER\i2c_master.h ****  * @ingroup I2C_MASTER_enumerations
  97:C:/c_root/electronics/DAVE_work_2019/pocket-nim/Dave/Generated/I2C_MASTER\i2c_master.h ****  * @{
  98:C:/c_root/electronics/DAVE_work_2019/pocket-nim/Dave/Generated/I2C_MASTER\i2c_master.h ****  */
  99:C:/c_root/electronics/DAVE_work_2019/pocket-nim/Dave/Generated/I2C_MASTER\i2c_master.h **** /**
 100:C:/c_root/electronics/DAVE_work_2019/pocket-nim/Dave/Generated/I2C_MASTER\i2c_master.h ****  * Initialization status.
 101:C:/c_root/electronics/DAVE_work_2019/pocket-nim/Dave/Generated/I2C_MASTER\i2c_master.h ****  */
 102:C:/c_root/electronics/DAVE_work_2019/pocket-nim/Dave/Generated/I2C_MASTER\i2c_master.h **** typedef enum I2C_MASTER_STATUS
 103:C:/c_root/electronics/DAVE_work_2019/pocket-nim/Dave/Generated/I2C_MASTER\i2c_master.h **** {
 104:C:/c_root/electronics/DAVE_work_2019/pocket-nim/Dave/Generated/I2C_MASTER\i2c_master.h ****   I2C_MASTER_STATUS_SUCCESS = 0U,           /*!< I2C_MASTER SUCCESS */
 105:C:/c_root/electronics/DAVE_work_2019/pocket-nim/Dave/Generated/I2C_MASTER\i2c_master.h ****   I2C_MASTER_STATUS_FAILURE = 1U,           /*!< I2C_MASTER FAILURE */
 106:C:/c_root/electronics/DAVE_work_2019/pocket-nim/Dave/Generated/I2C_MASTER\i2c_master.h ****   I2C_MASTER_STATUS_BUSY = 2U,              /*!< I2C_MASTER BUSY */
 107:C:/c_root/electronics/DAVE_work_2019/pocket-nim/Dave/Generated/I2C_MASTER\i2c_master.h ****   I2C_MASTER_STATUS_UNSUPPORTED_MODE = 3U   /*!< I2C_MASTER UNSUPPORTED MODE */
 108:C:/c_root/electronics/DAVE_work_2019/pocket-nim/Dave/Generated/I2C_MASTER\i2c_master.h **** } I2C_MASTER_STATUS_t;
 109:C:/c_root/electronics/DAVE_work_2019/pocket-nim/Dave/Generated/I2C_MASTER\i2c_master.h **** 
 110:C:/c_root/electronics/DAVE_work_2019/pocket-nim/Dave/Generated/I2C_MASTER\i2c_master.h **** /**
 111:C:/c_root/electronics/DAVE_work_2019/pocket-nim/Dave/Generated/I2C_MASTER\i2c_master.h ****  * Direction
 112:C:/c_root/electronics/DAVE_work_2019/pocket-nim/Dave/Generated/I2C_MASTER\i2c_master.h ****  */
 113:C:/c_root/electronics/DAVE_work_2019/pocket-nim/Dave/Generated/I2C_MASTER\i2c_master.h **** typedef enum I2C_MASTER_DIRECTION
 114:C:/c_root/electronics/DAVE_work_2019/pocket-nim/Dave/Generated/I2C_MASTER\i2c_master.h **** {
 115:C:/c_root/electronics/DAVE_work_2019/pocket-nim/Dave/Generated/I2C_MASTER\i2c_master.h ****   I2C_MASTER_DIRECTION_TRANSMIT = 0U,   /*!< Direction indicates transmit */
 116:C:/c_root/electronics/DAVE_work_2019/pocket-nim/Dave/Generated/I2C_MASTER\i2c_master.h ****   I2C_MASTER_DIRECTION_RECEIVE = 1U     /*!< Direction indicates receive */
 117:C:/c_root/electronics/DAVE_work_2019/pocket-nim/Dave/Generated/I2C_MASTER\i2c_master.h **** } I2C_MASTER_DIRECTION_t;
 118:C:/c_root/electronics/DAVE_work_2019/pocket-nim/Dave/Generated/I2C_MASTER\i2c_master.h **** 
 119:C:/c_root/electronics/DAVE_work_2019/pocket-nim/Dave/Generated/I2C_MASTER\i2c_master.h **** /**
 120:C:/c_root/electronics/DAVE_work_2019/pocket-nim/Dave/Generated/I2C_MASTER\i2c_master.h ****  * @brief Enum used to identify the transfer type used for either transmit or receive function.
 121:C:/c_root/electronics/DAVE_work_2019/pocket-nim/Dave/Generated/I2C_MASTER\i2c_master.h ****  */
 122:C:/c_root/electronics/DAVE_work_2019/pocket-nim/Dave/Generated/I2C_MASTER\i2c_master.h **** typedef enum I2C_MASTER_TRANSFER_MODE
 123:C:/c_root/electronics/DAVE_work_2019/pocket-nim/Dave/Generated/I2C_MASTER\i2c_master.h **** {
 124:C:/c_root/electronics/DAVE_work_2019/pocket-nim/Dave/Generated/I2C_MASTER\i2c_master.h ****   I2C_MASTER_TRANSFER_MODE_INTERRUPT,  /**< Implement data transmit or receive using interrupts */
 125:C:/c_root/electronics/DAVE_work_2019/pocket-nim/Dave/Generated/I2C_MASTER\i2c_master.h ****   I2C_MASTER_TRANSFER_MODE_DMA,        /**< Implement data transmit or receive using DMA */
 126:C:/c_root/electronics/DAVE_work_2019/pocket-nim/Dave/Generated/I2C_MASTER\i2c_master.h ****   I2C_MASTER_TRANSFER_MODE_DIRECT      /**< This configuration exposes signals for external APP con
 127:C:/c_root/electronics/DAVE_work_2019/pocket-nim/Dave/Generated/I2C_MASTER\i2c_master.h **** } I2C_MASTER_TRANSFER_MODE_t;
 128:C:/c_root/electronics/DAVE_work_2019/pocket-nim/Dave/Generated/I2C_MASTER\i2c_master.h **** /**
 129:C:/c_root/electronics/DAVE_work_2019/pocket-nim/Dave/Generated/I2C_MASTER\i2c_master.h ****  * @}
 130:C:/c_root/electronics/DAVE_work_2019/pocket-nim/Dave/Generated/I2C_MASTER\i2c_master.h ****  */
 131:C:/c_root/electronics/DAVE_work_2019/pocket-nim/Dave/Generated/I2C_MASTER\i2c_master.h **** /**************************************************************************************************
 132:C:/c_root/electronics/DAVE_work_2019/pocket-nim/Dave/Generated/I2C_MASTER\i2c_master.h **** * DATA STRUCTURES
 133:C:/c_root/electronics/DAVE_work_2019/pocket-nim/Dave/Generated/I2C_MASTER\i2c_master.h **** ***************************************************************************************************
 134:C:/c_root/electronics/DAVE_work_2019/pocket-nim/Dave/Generated/I2C_MASTER\i2c_master.h **** 
 135:C:/c_root/electronics/DAVE_work_2019/pocket-nim/Dave/Generated/I2C_MASTER\i2c_master.h **** /**
 136:C:/c_root/electronics/DAVE_work_2019/pocket-nim/Dave/Generated/I2C_MASTER\i2c_master.h ****  * @ingroup I2C_MASTER_datastructures
 137:C:/c_root/electronics/DAVE_work_2019/pocket-nim/Dave/Generated/I2C_MASTER\i2c_master.h ****  * @{
 138:C:/c_root/electronics/DAVE_work_2019/pocket-nim/Dave/Generated/I2C_MASTER\i2c_master.h ****  */
 139:C:/c_root/electronics/DAVE_work_2019/pocket-nim/Dave/Generated/I2C_MASTER\i2c_master.h **** /**
 140:C:/c_root/electronics/DAVE_work_2019/pocket-nim/Dave/Generated/I2C_MASTER\i2c_master.h ****  * @brief Structure for DMA configuration.
 141:C:/c_root/electronics/DAVE_work_2019/pocket-nim/Dave/Generated/I2C_MASTER\i2c_master.h ****  */
 142:C:/c_root/electronics/DAVE_work_2019/pocket-nim/Dave/Generated/I2C_MASTER\i2c_master.h **** #if ((I2C_MASTER_DMA_TX_ENABLED == 1) || (I2C_MASTER_DMA_RX_ENABLED == 1))
 143:C:/c_root/electronics/DAVE_work_2019/pocket-nim/Dave/Generated/I2C_MASTER\i2c_master.h **** typedef struct I2C_MASTER_DMA_CONFIG
 144:C:/c_root/electronics/DAVE_work_2019/pocket-nim/Dave/Generated/I2C_MASTER\i2c_master.h **** {
 145:C:/c_root/electronics/DAVE_work_2019/pocket-nim/Dave/Generated/I2C_MASTER\i2c_master.h ****   const XMC_DMA_CH_CONFIG_t * dma_ch_config;   /**< Pointer to the DMA channel configuration.*/
 146:C:/c_root/electronics/DAVE_work_2019/pocket-nim/Dave/Generated/I2C_MASTER\i2c_master.h ****   GLOBAL_DMA_t * global_dma;                   /**< Global DMA handle */
 147:C:/c_root/electronics/DAVE_work_2019/pocket-nim/Dave/Generated/I2C_MASTER\i2c_master.h ****   uint8_t dma_channel;                         /**< DMA channel number */
 148:C:/c_root/electronics/DAVE_work_2019/pocket-nim/Dave/Generated/I2C_MASTER\i2c_master.h **** } I2C_MASTER_DMA_CONFIG_t;
 149:C:/c_root/electronics/DAVE_work_2019/pocket-nim/Dave/Generated/I2C_MASTER\i2c_master.h **** #endif
 150:C:/c_root/electronics/DAVE_work_2019/pocket-nim/Dave/Generated/I2C_MASTER\i2c_master.h **** /**
 151:C:/c_root/electronics/DAVE_work_2019/pocket-nim/Dave/Generated/I2C_MASTER\i2c_master.h ****  * @brief Constant structure for holding the configuration parameters of I2C channel.
 152:C:/c_root/electronics/DAVE_work_2019/pocket-nim/Dave/Generated/I2C_MASTER\i2c_master.h ****  */
 153:C:/c_root/electronics/DAVE_work_2019/pocket-nim/Dave/Generated/I2C_MASTER\i2c_master.h **** typedef struct I2C_MASTER_CONFIG
 154:C:/c_root/electronics/DAVE_work_2019/pocket-nim/Dave/Generated/I2C_MASTER\i2c_master.h **** {
 155:C:/c_root/electronics/DAVE_work_2019/pocket-nim/Dave/Generated/I2C_MASTER\i2c_master.h ****    const XMC_I2C_CH_CONFIG_t *brg_config;             /*!< Basic I2C configuration from the GUI wit
 156:C:/c_root/electronics/DAVE_work_2019/pocket-nim/Dave/Generated/I2C_MASTER\i2c_master.h **** #if (I2C_MASTER_DMA_TX_ENABLED == 1)
 157:C:/c_root/electronics/DAVE_work_2019/pocket-nim/Dave/Generated/I2C_MASTER\i2c_master.h ****    const I2C_MASTER_DMA_CONFIG_t * const transmit_dma_config; /**< Pointer to the DMA channel confi
 158:C:/c_root/electronics/DAVE_work_2019/pocket-nim/Dave/Generated/I2C_MASTER\i2c_master.h ****                                                                    data transmission.*/
 159:C:/c_root/electronics/DAVE_work_2019/pocket-nim/Dave/Generated/I2C_MASTER\i2c_master.h **** #endif
 160:C:/c_root/electronics/DAVE_work_2019/pocket-nim/Dave/Generated/I2C_MASTER\i2c_master.h **** #if (I2C_MASTER_DMA_RX_ENABLED == 1)
 161:C:/c_root/electronics/DAVE_work_2019/pocket-nim/Dave/Generated/I2C_MASTER\i2c_master.h ****    const I2C_MASTER_DMA_CONFIG_t * const receive_dma_config;  /**< Pointer to the DMA channel confi
 162:C:/c_root/electronics/DAVE_work_2019/pocket-nim/Dave/Generated/I2C_MASTER\i2c_master.h ****                                                                    data reception.*/
 163:C:/c_root/electronics/DAVE_work_2019/pocket-nim/Dave/Generated/I2C_MASTER\i2c_master.h **** #endif
 164:C:/c_root/electronics/DAVE_work_2019/pocket-nim/Dave/Generated/I2C_MASTER\i2c_master.h ****    i2c_master_fptr_cbhandler fptr_i2c_config;         /*!< Function pointer to configure the MUX va
 165:C:/c_root/electronics/DAVE_work_2019/pocket-nim/Dave/Generated/I2C_MASTER\i2c_master.h ****    i2c_master_fptr_cbhandler tx_cbhandler;            /*!< Function pointer to hold the callback fu
 166:C:/c_root/electronics/DAVE_work_2019/pocket-nim/Dave/Generated/I2C_MASTER\i2c_master.h ****                                                            called when the transmission is complete
 167:C:/c_root/electronics/DAVE_work_2019/pocket-nim/Dave/Generated/I2C_MASTER\i2c_master.h ****    i2c_master_fptr_cbhandler rx_cbhandler;            /*!< Function pointer to hold the callback fu
 168:C:/c_root/electronics/DAVE_work_2019/pocket-nim/Dave/Generated/I2C_MASTER\i2c_master.h ****                                                            called when the reception is complete*/
 169:C:/c_root/electronics/DAVE_work_2019/pocket-nim/Dave/Generated/I2C_MASTER\i2c_master.h ****    i2c_master_fptr_cbhandler nack_cbhandler;          /*!< Function pointer to hold the callback fu
 170:C:/c_root/electronics/DAVE_work_2019/pocket-nim/Dave/Generated/I2C_MASTER\i2c_master.h ****                                                            called when nack is received*/
 171:C:/c_root/electronics/DAVE_work_2019/pocket-nim/Dave/Generated/I2C_MASTER\i2c_master.h ****    i2c_master_fptr_cbhandler arbitration_cbhandler;   /*!< Function pointer to hold the callback fu
 172:C:/c_root/electronics/DAVE_work_2019/pocket-nim/Dave/Generated/I2C_MASTER\i2c_master.h ****                                                            called when arbitration lost is occured*
 173:C:/c_root/electronics/DAVE_work_2019/pocket-nim/Dave/Generated/I2C_MASTER\i2c_master.h ****    i2c_master_fptr_cbhandler error_cbhandler;         /*!< Function pointer to hold the callback fu
 174:C:/c_root/electronics/DAVE_work_2019/pocket-nim/Dave/Generated/I2C_MASTER\i2c_master.h ****                                                            called when error is detected.*/
 175:C:/c_root/electronics/DAVE_work_2019/pocket-nim/Dave/Generated/I2C_MASTER\i2c_master.h ****    I2C_MASTER_TRANSFER_MODE_t transmit_mode;          /**< Mode used for transmitting data. Data ca
 176:C:/c_root/electronics/DAVE_work_2019/pocket-nim/Dave/Generated/I2C_MASTER\i2c_master.h ****                                                            interrupt, DMA or direct(using polling o
 177:C:/c_root/electronics/DAVE_work_2019/pocket-nim/Dave/Generated/I2C_MASTER\i2c_master.h ****    I2C_MASTER_TRANSFER_MODE_t receive_mode;           /**< Mode used for receiving data. Data can b
 178:C:/c_root/electronics/DAVE_work_2019/pocket-nim/Dave/Generated/I2C_MASTER\i2c_master.h ****                                                            interrupt, DMA or direct(using polling o
 179:C:/c_root/electronics/DAVE_work_2019/pocket-nim/Dave/Generated/I2C_MASTER\i2c_master.h **** 
 180:C:/c_root/electronics/DAVE_work_2019/pocket-nim/Dave/Generated/I2C_MASTER\i2c_master.h ****    XMC_USIC_CH_FIFO_SIZE_t txFIFO_size;               /*!< TxFIFO size configuration*/
 181:C:/c_root/electronics/DAVE_work_2019/pocket-nim/Dave/Generated/I2C_MASTER\i2c_master.h ****    XMC_USIC_CH_FIFO_SIZE_t rxFIFO_size;               /*!< RxFIFO size configuration*/
 182:C:/c_root/electronics/DAVE_work_2019/pocket-nim/Dave/Generated/I2C_MASTER\i2c_master.h **** 
 183:C:/c_root/electronics/DAVE_work_2019/pocket-nim/Dave/Generated/I2C_MASTER\i2c_master.h **** } I2C_MASTER_CONFIG_t;
 184:C:/c_root/electronics/DAVE_work_2019/pocket-nim/Dave/Generated/I2C_MASTER\i2c_master.h **** 
 185:C:/c_root/electronics/DAVE_work_2019/pocket-nim/Dave/Generated/I2C_MASTER\i2c_master.h **** /**
 186:C:/c_root/electronics/DAVE_work_2019/pocket-nim/Dave/Generated/I2C_MASTER\i2c_master.h ****  * @brief Structure to hold the dynamic variables for the I2C_MASTER communication.
 187:C:/c_root/electronics/DAVE_work_2019/pocket-nim/Dave/Generated/I2C_MASTER\i2c_master.h ****  */
 188:C:/c_root/electronics/DAVE_work_2019/pocket-nim/Dave/Generated/I2C_MASTER\i2c_master.h **** typedef struct I2C_MASTER_RUNTIME
 189:C:/c_root/electronics/DAVE_work_2019/pocket-nim/Dave/Generated/I2C_MASTER\i2c_master.h **** {
 190:C:/c_root/electronics/DAVE_work_2019/pocket-nim/Dave/Generated/I2C_MASTER\i2c_master.h ****   uint8_t * tx_data;                     /*!< Pointer to the transmit data buffer*/
 191:C:/c_root/electronics/DAVE_work_2019/pocket-nim/Dave/Generated/I2C_MASTER\i2c_master.h ****   uint8_t * rx_data;                     /*!< Pointer to the receive data buffer*/
 192:C:/c_root/electronics/DAVE_work_2019/pocket-nim/Dave/Generated/I2C_MASTER\i2c_master.h ****   uint32_t tx_data_count;                /*!< Number of bytes of data to be transmitted*/
 193:C:/c_root/electronics/DAVE_work_2019/pocket-nim/Dave/Generated/I2C_MASTER\i2c_master.h ****   volatile uint32_t tx_data_index;       /*!< Index to the byte to be transmitted next in the tx_da
 194:C:/c_root/electronics/DAVE_work_2019/pocket-nim/Dave/Generated/I2C_MASTER\i2c_master.h ****   uint32_t rx_data_count;                /*!< Number of bytes of data to be received*/
 195:C:/c_root/electronics/DAVE_work_2019/pocket-nim/Dave/Generated/I2C_MASTER\i2c_master.h **** #if (I2C_MASTER_DMA_RX_ENABLED == 1)
 196:C:/c_root/electronics/DAVE_work_2019/pocket-nim/Dave/Generated/I2C_MASTER\i2c_master.h ****   uint32_t rx_dma_data_count;            /*!< Number of bytes of data to be received-DMA mode*/
 197:C:/c_root/electronics/DAVE_work_2019/pocket-nim/Dave/Generated/I2C_MASTER\i2c_master.h ****   uint32_t rx_dma_data_index;            /*!< Index of bytes of data to be received-DMA mode*/
 198:C:/c_root/electronics/DAVE_work_2019/pocket-nim/Dave/Generated/I2C_MASTER\i2c_master.h **** #endif
 199:C:/c_root/electronics/DAVE_work_2019/pocket-nim/Dave/Generated/I2C_MASTER\i2c_master.h ****   volatile uint32_t rx_data_index;       /*!< Indicates the number of bytes currently available in 
 200:C:/c_root/electronics/DAVE_work_2019/pocket-nim/Dave/Generated/I2C_MASTER\i2c_master.h ****   volatile uint32_t direction;           /*!< Indicates TRANSMIT/RECEIVE */
 201:C:/c_root/electronics/DAVE_work_2019/pocket-nim/Dave/Generated/I2C_MASTER\i2c_master.h ****   uint32_t send_stop;                    /*!< Indicates to stop the I2C */
 202:C:/c_root/electronics/DAVE_work_2019/pocket-nim/Dave/Generated/I2C_MASTER\i2c_master.h ****   uint32_t send_nack;                    /*!< Indicates to send nack */
 203:C:/c_root/electronics/DAVE_work_2019/pocket-nim/Dave/Generated/I2C_MASTER\i2c_master.h ****   uint8_t tx_ack_sr;                         /*!< Service request number assigned to transmit inter
 204:C:/c_root/electronics/DAVE_work_2019/pocket-nim/Dave/Generated/I2C_MASTER\i2c_master.h ****   uint8_t rx_sr;                         /*!< Service request number assigned to receive interrupts
 205:C:/c_root/electronics/DAVE_work_2019/pocket-nim/Dave/Generated/I2C_MASTER\i2c_master.h ****   volatile bool tx_busy;                 /*!< Status flag to indicate busy when a transmission is a
 206:C:/c_root/electronics/DAVE_work_2019/pocket-nim/Dave/Generated/I2C_MASTER\i2c_master.h ****   volatile bool rx_busy;                 /*!< Status flag to indicate busy when a reception is assi
 207:C:/c_root/electronics/DAVE_work_2019/pocket-nim/Dave/Generated/I2C_MASTER\i2c_master.h ****   volatile bool bus_acquired;            /*!< flag to indicate whether bus is acquired or not */
 208:C:/c_root/electronics/DAVE_work_2019/pocket-nim/Dave/Generated/I2C_MASTER\i2c_master.h **** } I2C_MASTER_RUNTIME_t;
 209:C:/c_root/electronics/DAVE_work_2019/pocket-nim/Dave/Generated/I2C_MASTER\i2c_master.h **** 
 210:C:/c_root/electronics/DAVE_work_2019/pocket-nim/Dave/Generated/I2C_MASTER\i2c_master.h **** 
 211:C:/c_root/electronics/DAVE_work_2019/pocket-nim/Dave/Generated/I2C_MASTER\i2c_master.h **** /**
 212:C:/c_root/electronics/DAVE_work_2019/pocket-nim/Dave/Generated/I2C_MASTER\i2c_master.h ****  * @brief Handler structure with pointers to dynamic and static parameters.
 213:C:/c_root/electronics/DAVE_work_2019/pocket-nim/Dave/Generated/I2C_MASTER\i2c_master.h ****  */
 214:C:/c_root/electronics/DAVE_work_2019/pocket-nim/Dave/Generated/I2C_MASTER\i2c_master.h **** typedef struct I2C_MASTER
 215:C:/c_root/electronics/DAVE_work_2019/pocket-nim/Dave/Generated/I2C_MASTER\i2c_master.h **** {
 216:C:/c_root/electronics/DAVE_work_2019/pocket-nim/Dave/Generated/I2C_MASTER\i2c_master.h ****   XMC_USIC_CH_t *channel;                    /*!< USIC channel*/
 217:C:/c_root/electronics/DAVE_work_2019/pocket-nim/Dave/Generated/I2C_MASTER\i2c_master.h ****   const I2C_MASTER_CONFIG_t * const config;  /*!< I2C configuration structure pointer*/
 218:C:/c_root/electronics/DAVE_work_2019/pocket-nim/Dave/Generated/I2C_MASTER\i2c_master.h ****   I2C_MASTER_RUNTIME_t * const runtime;      /*!< Pointer to the structure holding all variables,
 219:C:/c_root/electronics/DAVE_work_2019/pocket-nim/Dave/Generated/I2C_MASTER\i2c_master.h ****    	                                               that can change at runtime*/
 220:C:/c_root/electronics/DAVE_work_2019/pocket-nim/Dave/Generated/I2C_MASTER\i2c_master.h **** } I2C_MASTER_t;
 221:C:/c_root/electronics/DAVE_work_2019/pocket-nim/Dave/Generated/I2C_MASTER\i2c_master.h **** 
 222:C:/c_root/electronics/DAVE_work_2019/pocket-nim/Dave/Generated/I2C_MASTER\i2c_master.h **** /**
 223:C:/c_root/electronics/DAVE_work_2019/pocket-nim/Dave/Generated/I2C_MASTER\i2c_master.h ****  * @}
 224:C:/c_root/electronics/DAVE_work_2019/pocket-nim/Dave/Generated/I2C_MASTER\i2c_master.h ****  */
 225:C:/c_root/electronics/DAVE_work_2019/pocket-nim/Dave/Generated/I2C_MASTER\i2c_master.h **** 
 226:C:/c_root/electronics/DAVE_work_2019/pocket-nim/Dave/Generated/I2C_MASTER\i2c_master.h **** #ifdef __cplusplus
 227:C:/c_root/electronics/DAVE_work_2019/pocket-nim/Dave/Generated/I2C_MASTER\i2c_master.h **** extern "C" {
 228:C:/c_root/electronics/DAVE_work_2019/pocket-nim/Dave/Generated/I2C_MASTER\i2c_master.h **** #endif
 229:C:/c_root/electronics/DAVE_work_2019/pocket-nim/Dave/Generated/I2C_MASTER\i2c_master.h **** 
 230:C:/c_root/electronics/DAVE_work_2019/pocket-nim/Dave/Generated/I2C_MASTER\i2c_master.h **** 
 231:C:/c_root/electronics/DAVE_work_2019/pocket-nim/Dave/Generated/I2C_MASTER\i2c_master.h **** /**
 232:C:/c_root/electronics/DAVE_work_2019/pocket-nim/Dave/Generated/I2C_MASTER\i2c_master.h ****  * @ingroup I2C_MASTER_apidoc
 233:C:/c_root/electronics/DAVE_work_2019/pocket-nim/Dave/Generated/I2C_MASTER\i2c_master.h ****  * @{
 234:C:/c_root/electronics/DAVE_work_2019/pocket-nim/Dave/Generated/I2C_MASTER\i2c_master.h ****  */
 235:C:/c_root/electronics/DAVE_work_2019/pocket-nim/Dave/Generated/I2C_MASTER\i2c_master.h **** 
 236:C:/c_root/electronics/DAVE_work_2019/pocket-nim/Dave/Generated/I2C_MASTER\i2c_master.h **** /**************************************************************************************************
 237:C:/c_root/electronics/DAVE_work_2019/pocket-nim/Dave/Generated/I2C_MASTER\i2c_master.h ****  * API PROTOTYPES
 238:C:/c_root/electronics/DAVE_work_2019/pocket-nim/Dave/Generated/I2C_MASTER\i2c_master.h ****  **************************************************************************************************
 239:C:/c_root/electronics/DAVE_work_2019/pocket-nim/Dave/Generated/I2C_MASTER\i2c_master.h **** /**
 240:C:/c_root/electronics/DAVE_work_2019/pocket-nim/Dave/Generated/I2C_MASTER\i2c_master.h ****  * @brief Get I2C_MASTER APP version.
 241:C:/c_root/electronics/DAVE_work_2019/pocket-nim/Dave/Generated/I2C_MASTER\i2c_master.h ****  * @return \a DAVE_APP_VERSION_t APP version information (major, minor and patch number)
 242:C:/c_root/electronics/DAVE_work_2019/pocket-nim/Dave/Generated/I2C_MASTER\i2c_master.h ****  *
 243:C:/c_root/electronics/DAVE_work_2019/pocket-nim/Dave/Generated/I2C_MASTER\i2c_master.h ****  * \par<b>Description: </b><br>
 244:C:/c_root/electronics/DAVE_work_2019/pocket-nim/Dave/Generated/I2C_MASTER\i2c_master.h ****  * The function can be used to check application software compatibility with a
 245:C:/c_root/electronics/DAVE_work_2019/pocket-nim/Dave/Generated/I2C_MASTER\i2c_master.h ****  * specific version of the APP.
 246:C:/c_root/electronics/DAVE_work_2019/pocket-nim/Dave/Generated/I2C_MASTER\i2c_master.h ****  *
 247:C:/c_root/electronics/DAVE_work_2019/pocket-nim/Dave/Generated/I2C_MASTER\i2c_master.h ****  * @code
 248:C:/c_root/electronics/DAVE_work_2019/pocket-nim/Dave/Generated/I2C_MASTER\i2c_master.h ****  *  #include <DAVE.h>
 249:C:/c_root/electronics/DAVE_work_2019/pocket-nim/Dave/Generated/I2C_MASTER\i2c_master.h ****  *
 250:C:/c_root/electronics/DAVE_work_2019/pocket-nim/Dave/Generated/I2C_MASTER\i2c_master.h ****  *  int main(void)
 251:C:/c_root/electronics/DAVE_work_2019/pocket-nim/Dave/Generated/I2C_MASTER\i2c_master.h ****  *  {
 252:C:/c_root/electronics/DAVE_work_2019/pocket-nim/Dave/Generated/I2C_MASTER\i2c_master.h ****  *    DAVE_APP_VERSION_t version;
 253:C:/c_root/electronics/DAVE_work_2019/pocket-nim/Dave/Generated/I2C_MASTER\i2c_master.h ****  *    DAVE_Init();
 254:C:/c_root/electronics/DAVE_work_2019/pocket-nim/Dave/Generated/I2C_MASTER\i2c_master.h ****  *    version = I2C_MASTER_GetAppVersion();
 255:C:/c_root/electronics/DAVE_work_2019/pocket-nim/Dave/Generated/I2C_MASTER\i2c_master.h ****  *    if(version.major != 4U)
 256:C:/c_root/electronics/DAVE_work_2019/pocket-nim/Dave/Generated/I2C_MASTER\i2c_master.h ****  *    {
 257:C:/c_root/electronics/DAVE_work_2019/pocket-nim/Dave/Generated/I2C_MASTER\i2c_master.h ****  *    }
 258:C:/c_root/electronics/DAVE_work_2019/pocket-nim/Dave/Generated/I2C_MASTER\i2c_master.h ****  *    while(1)
 259:C:/c_root/electronics/DAVE_work_2019/pocket-nim/Dave/Generated/I2C_MASTER\i2c_master.h ****  *    {}
 260:C:/c_root/electronics/DAVE_work_2019/pocket-nim/Dave/Generated/I2C_MASTER\i2c_master.h ****  *    return 0;
 261:C:/c_root/electronics/DAVE_work_2019/pocket-nim/Dave/Generated/I2C_MASTER\i2c_master.h ****  *  }
 262:C:/c_root/electronics/DAVE_work_2019/pocket-nim/Dave/Generated/I2C_MASTER\i2c_master.h ****  * @endcode<BR> </p>
 263:C:/c_root/electronics/DAVE_work_2019/pocket-nim/Dave/Generated/I2C_MASTER\i2c_master.h ****  */
 264:C:/c_root/electronics/DAVE_work_2019/pocket-nim/Dave/Generated/I2C_MASTER\i2c_master.h **** DAVE_APP_VERSION_t I2C_MASTER_GetAppVersion(void);
 265:C:/c_root/electronics/DAVE_work_2019/pocket-nim/Dave/Generated/I2C_MASTER\i2c_master.h **** /**
 266:C:/c_root/electronics/DAVE_work_2019/pocket-nim/Dave/Generated/I2C_MASTER\i2c_master.h ****  * @brief This function initializes the I2C_MASTER APP based on user provided configuration.
 267:C:/c_root/electronics/DAVE_work_2019/pocket-nim/Dave/Generated/I2C_MASTER\i2c_master.h ****  *
 268:C:/c_root/electronics/DAVE_work_2019/pocket-nim/Dave/Generated/I2C_MASTER\i2c_master.h ****  * @return None
 269:C:/c_root/electronics/DAVE_work_2019/pocket-nim/Dave/Generated/I2C_MASTER\i2c_master.h ****  *
 270:C:/c_root/electronics/DAVE_work_2019/pocket-nim/Dave/Generated/I2C_MASTER\i2c_master.h ****  * \par<b>Description: </b><br>
 271:C:/c_root/electronics/DAVE_work_2019/pocket-nim/Dave/Generated/I2C_MASTER\i2c_master.h ****  * I2C configurations like channel selection,baud rate setting,
 272:C:/c_root/electronics/DAVE_work_2019/pocket-nim/Dave/Generated/I2C_MASTER\i2c_master.h ****  * FIFO configuration etc are done in this API.
 273:C:/c_root/electronics/DAVE_work_2019/pocket-nim/Dave/Generated/I2C_MASTER\i2c_master.h ****  * Protocol specific interrupts can also be enabled using the I2C_MASTER_Init
 274:C:/c_root/electronics/DAVE_work_2019/pocket-nim/Dave/Generated/I2C_MASTER\i2c_master.h ****  * function.
 275:C:/c_root/electronics/DAVE_work_2019/pocket-nim/Dave/Generated/I2C_MASTER\i2c_master.h ****  *
 276:C:/c_root/electronics/DAVE_work_2019/pocket-nim/Dave/Generated/I2C_MASTER\i2c_master.h ****  * Pre-requisite: Instantiate I2C_MASTER APP and generate code before using below code snippet.
 277:C:/c_root/electronics/DAVE_work_2019/pocket-nim/Dave/Generated/I2C_MASTER\i2c_master.h ****  * @code
 278:C:/c_root/electronics/DAVE_work_2019/pocket-nim/Dave/Generated/I2C_MASTER\i2c_master.h ****  *
 279:C:/c_root/electronics/DAVE_work_2019/pocket-nim/Dave/Generated/I2C_MASTER\i2c_master.h ****  *  #include <DAVE.h>
 280:C:/c_root/electronics/DAVE_work_2019/pocket-nim/Dave/Generated/I2C_MASTER\i2c_master.h ****  *  int main(void)
 281:C:/c_root/electronics/DAVE_work_2019/pocket-nim/Dave/Generated/I2C_MASTER\i2c_master.h ****  *  {
 282:C:/c_root/electronics/DAVE_work_2019/pocket-nim/Dave/Generated/I2C_MASTER\i2c_master.h ****  *   // Initializing the modules and the multiplexer
 283:C:/c_root/electronics/DAVE_work_2019/pocket-nim/Dave/Generated/I2C_MASTER\i2c_master.h ****  *   DAVE_Init(); // I2C_MASTER_Init will be called from DAVE_Init()
 284:C:/c_root/electronics/DAVE_work_2019/pocket-nim/Dave/Generated/I2C_MASTER\i2c_master.h ****  *   while(1)
 285:C:/c_root/electronics/DAVE_work_2019/pocket-nim/Dave/Generated/I2C_MASTER\i2c_master.h ****  *   {}
 286:C:/c_root/electronics/DAVE_work_2019/pocket-nim/Dave/Generated/I2C_MASTER\i2c_master.h ****  *   return 0;
 287:C:/c_root/electronics/DAVE_work_2019/pocket-nim/Dave/Generated/I2C_MASTER\i2c_master.h ****  *  }
 288:C:/c_root/electronics/DAVE_work_2019/pocket-nim/Dave/Generated/I2C_MASTER\i2c_master.h ****  * @endcode<BR> </p>
 289:C:/c_root/electronics/DAVE_work_2019/pocket-nim/Dave/Generated/I2C_MASTER\i2c_master.h ****  *
 290:C:/c_root/electronics/DAVE_work_2019/pocket-nim/Dave/Generated/I2C_MASTER\i2c_master.h ****  */
 291:C:/c_root/electronics/DAVE_work_2019/pocket-nim/Dave/Generated/I2C_MASTER\i2c_master.h **** 
 292:C:/c_root/electronics/DAVE_work_2019/pocket-nim/Dave/Generated/I2C_MASTER\i2c_master.h **** I2C_MASTER_STATUS_t I2C_MASTER_Init(const I2C_MASTER_t *const handle);
 293:C:/c_root/electronics/DAVE_work_2019/pocket-nim/Dave/Generated/I2C_MASTER\i2c_master.h **** 
 294:C:/c_root/electronics/DAVE_work_2019/pocket-nim/Dave/Generated/I2C_MASTER\i2c_master.h **** 
 295:C:/c_root/electronics/DAVE_work_2019/pocket-nim/Dave/Generated/I2C_MASTER\i2c_master.h **** /**
 296:C:/c_root/electronics/DAVE_work_2019/pocket-nim/Dave/Generated/I2C_MASTER\i2c_master.h ****  * @brief  Receives the data from I2C slave device.
 297:C:/c_root/electronics/DAVE_work_2019/pocket-nim/Dave/Generated/I2C_MASTER\i2c_master.h ****  * @param  handle I2C device handle of type I2C_MASTER_t*
 298:C:/c_root/electronics/DAVE_work_2019/pocket-nim/Dave/Generated/I2C_MASTER\i2c_master.h ****  * @param  send_start Flag to indicate that the start condition need to be send.
 299:C:/c_root/electronics/DAVE_work_2019/pocket-nim/Dave/Generated/I2C_MASTER\i2c_master.h ****  * @param  address I2C slave device address.
 300:C:/c_root/electronics/DAVE_work_2019/pocket-nim/Dave/Generated/I2C_MASTER\i2c_master.h ****  * @param  data buffer to receive data.
 301:C:/c_root/electronics/DAVE_work_2019/pocket-nim/Dave/Generated/I2C_MASTER\i2c_master.h ****  * @param  count The number of bytes to be received from slave.
 302:C:/c_root/electronics/DAVE_work_2019/pocket-nim/Dave/Generated/I2C_MASTER\i2c_master.h ****  * @param  send_stop The flag to indicate that the stop condition need to be send.
 303:C:/c_root/electronics/DAVE_work_2019/pocket-nim/Dave/Generated/I2C_MASTER\i2c_master.h ****  * @param  send_nack The flag to indicate that the NACK condition need to be send for the last byte
 304:C:/c_root/electronics/DAVE_work_2019/pocket-nim/Dave/Generated/I2C_MASTER\i2c_master.h ****  * @return @ref I2C_MASTER_STATUS_t Status.
 305:C:/c_root/electronics/DAVE_work_2019/pocket-nim/Dave/Generated/I2C_MASTER\i2c_master.h ****  * \par<b>NOTE: </b><br>
 306:C:/c_root/electronics/DAVE_work_2019/pocket-nim/Dave/Generated/I2C_MASTER\i2c_master.h ****  * I2C_MASTER_Receive API can be used in Interrupt and Direct modes.\n
 307:C:/c_root/electronics/DAVE_work_2019/pocket-nim/Dave/Generated/I2C_MASTER\i2c_master.h ****  * Address(address) should reserve an additional bit at the LSB for read/write indication. For exam
 308:C:/c_root/electronics/DAVE_work_2019/pocket-nim/Dave/Generated/I2C_MASTER\i2c_master.h ****  * be provided as 0x0a. If the address is 10-bit, only most significant bits with the 10-bit identi
 309:C:/c_root/electronics/DAVE_work_2019/pocket-nim/Dave/Generated/I2C_MASTER\i2c_master.h ****  * For example, if the 10-bit address is 0x305, the address should be provided as 0xf6(prepend with
 310:C:/c_root/electronics/DAVE_work_2019/pocket-nim/Dave/Generated/I2C_MASTER\i2c_master.h ****  * followed by 1-bit field for read/write).\n
 311:C:/c_root/electronics/DAVE_work_2019/pocket-nim/Dave/Generated/I2C_MASTER\i2c_master.h ****  * Pre-requisite: Instantiate I2C_MASTER APP and generate code before using below code snippet.
 312:C:/c_root/electronics/DAVE_work_2019/pocket-nim/Dave/Generated/I2C_MASTER\i2c_master.h ****  *
 313:C:/c_root/electronics/DAVE_work_2019/pocket-nim/Dave/Generated/I2C_MASTER\i2c_master.h ****  * @code
 314:C:/c_root/electronics/DAVE_work_2019/pocket-nim/Dave/Generated/I2C_MASTER\i2c_master.h ****  *
 315:C:/c_root/electronics/DAVE_work_2019/pocket-nim/Dave/Generated/I2C_MASTER\i2c_master.h ****  *  #include <DAVE.h>
 316:C:/c_root/electronics/DAVE_work_2019/pocket-nim/Dave/Generated/I2C_MASTER\i2c_master.h ****  *  #define SLAVE_ADDRESS 0xA0
 317:C:/c_root/electronics/DAVE_work_2019/pocket-nim/Dave/Generated/I2C_MASTER\i2c_master.h ****  *  #define BYTES_TO_READ 10
 318:C:/c_root/electronics/DAVE_work_2019/pocket-nim/Dave/Generated/I2C_MASTER\i2c_master.h ****  *  #define BYTES_TO_TRANSMIT 10
 319:C:/c_root/electronics/DAVE_work_2019/pocket-nim/Dave/Generated/I2C_MASTER\i2c_master.h ****  *
 320:C:/c_root/electronics/DAVE_work_2019/pocket-nim/Dave/Generated/I2C_MASTER\i2c_master.h ****  *  typedef enum PCA9502_REGADDR {
 321:C:/c_root/electronics/DAVE_work_2019/pocket-nim/Dave/Generated/I2C_MASTER\i2c_master.h ****  *    IO_DIR    = 0xA << 3,
 322:C:/c_root/electronics/DAVE_work_2019/pocket-nim/Dave/Generated/I2C_MASTER\i2c_master.h ****  *    IO_STATE  = 0xB << 3,
 323:C:/c_root/electronics/DAVE_work_2019/pocket-nim/Dave/Generated/I2C_MASTER\i2c_master.h ****  *    IO_INTE   = 0xC << 3,
 324:C:/c_root/electronics/DAVE_work_2019/pocket-nim/Dave/Generated/I2C_MASTER\i2c_master.h ****  *    IO_CTRL   = 0xE << 3
 325:C:/c_root/electronics/DAVE_work_2019/pocket-nim/Dave/Generated/I2C_MASTER\i2c_master.h ****  *  } PCA9502_REGADDR_t;
 326:C:/c_root/electronics/DAVE_work_2019/pocket-nim/Dave/Generated/I2C_MASTER\i2c_master.h **** 
 327:C:/c_root/electronics/DAVE_work_2019/pocket-nim/Dave/Generated/I2C_MASTER\i2c_master.h ****  *  uint8_t mem_address[2];
 328:C:/c_root/electronics/DAVE_work_2019/pocket-nim/Dave/Generated/I2C_MASTER\i2c_master.h ****  *  uint8_t data = 0x55;
 329:C:/c_root/electronics/DAVE_work_2019/pocket-nim/Dave/Generated/I2C_MASTER\i2c_master.h ****  *  uint8_t rx_data;
 330:C:/c_root/electronics/DAVE_work_2019/pocket-nim/Dave/Generated/I2C_MASTER\i2c_master.h ****  *
 331:C:/c_root/electronics/DAVE_work_2019/pocket-nim/Dave/Generated/I2C_MASTER\i2c_master.h ****  *  int main(void)
 332:C:/c_root/electronics/DAVE_work_2019/pocket-nim/Dave/Generated/I2C_MASTER\i2c_master.h ****  *  {
 333:C:/c_root/electronics/DAVE_work_2019/pocket-nim/Dave/Generated/I2C_MASTER\i2c_master.h ****  *   DAVE_STATUS_t init_status;  
 334:C:/c_root/electronics/DAVE_work_2019/pocket-nim/Dave/Generated/I2C_MASTER\i2c_master.h ****  *   init_status = DAVE_Init();
 335:C:/c_root/electronics/DAVE_work_2019/pocket-nim/Dave/Generated/I2C_MASTER\i2c_master.h ****  *   if(init_status == DAVE_STATUS_SUCCESS)
 336:C:/c_root/electronics/DAVE_work_2019/pocket-nim/Dave/Generated/I2C_MASTER\i2c_master.h ****  *   {
 337:C:/c_root/electronics/DAVE_work_2019/pocket-nim/Dave/Generated/I2C_MASTER\i2c_master.h ****  *     mem_address[0] = IO_STATE;//memory which need to be read from slave
 338:C:/c_root/electronics/DAVE_work_2019/pocket-nim/Dave/Generated/I2C_MASTER\i2c_master.h ****  *     //Write data to IO EXPANDER
 339:C:/c_root/electronics/DAVE_work_2019/pocket-nim/Dave/Generated/I2C_MASTER\i2c_master.h ****  *     I2C_MASTER_Transmit(&I2C_MASTER_0,true,SLAVE_ADDRESS,mem_address,1,false);
 340:C:/c_root/electronics/DAVE_work_2019/pocket-nim/Dave/Generated/I2C_MASTER\i2c_master.h ****  *     while(I2C_MASTER_IsTxBusy(&I2C_MASTER_0));
 341:C:/c_root/electronics/DAVE_work_2019/pocket-nim/Dave/Generated/I2C_MASTER\i2c_master.h ****  *
 342:C:/c_root/electronics/DAVE_work_2019/pocket-nim/Dave/Generated/I2C_MASTER\i2c_master.h ****  *     I2C_MASTER_Transmit(&I2C_MASTER_0,false,SLAVE_ADDRESS,&data,1,true);
 343:C:/c_root/electronics/DAVE_work_2019/pocket-nim/Dave/Generated/I2C_MASTER\i2c_master.h ****  *     while(I2C_MASTER_IsTxBusy(&I2C_MASTER_0));
 344:C:/c_root/electronics/DAVE_work_2019/pocket-nim/Dave/Generated/I2C_MASTER\i2c_master.h **** 
 345:C:/c_root/electronics/DAVE_work_2019/pocket-nim/Dave/Generated/I2C_MASTER\i2c_master.h ****  *     //Read data from IO EXPANDER
 346:C:/c_root/electronics/DAVE_work_2019/pocket-nim/Dave/Generated/I2C_MASTER\i2c_master.h ****  *     I2C_MASTER_Transmit(&I2C_MASTER_0,true,SLAVE_ADDRESS,mem_address,1,false);
 347:C:/c_root/electronics/DAVE_work_2019/pocket-nim/Dave/Generated/I2C_MASTER\i2c_master.h ****  *     while(I2C_MASTER_IsTxBusy(&I2C_MASTER_0));
 348:C:/c_root/electronics/DAVE_work_2019/pocket-nim/Dave/Generated/I2C_MASTER\i2c_master.h ****  *
 349:C:/c_root/electronics/DAVE_work_2019/pocket-nim/Dave/Generated/I2C_MASTER\i2c_master.h ****  *     I2C_MASTER_Receive(&I2C_MASTER_0,true,SLAVE_ADDRESS,&rx_data,1,true,true);
 350:C:/c_root/electronics/DAVE_work_2019/pocket-nim/Dave/Generated/I2C_MASTER\i2c_master.h ****  *     while(I2C_MASTER_IsRxBusy(&I2C_MASTER_0));
 351:C:/c_root/electronics/DAVE_work_2019/pocket-nim/Dave/Generated/I2C_MASTER\i2c_master.h ****  *   }
 352:C:/c_root/electronics/DAVE_work_2019/pocket-nim/Dave/Generated/I2C_MASTER\i2c_master.h ****  *   while(1)
 353:C:/c_root/electronics/DAVE_work_2019/pocket-nim/Dave/Generated/I2C_MASTER\i2c_master.h ****  *   { }
 354:C:/c_root/electronics/DAVE_work_2019/pocket-nim/Dave/Generated/I2C_MASTER\i2c_master.h ****  *  return 0;
 355:C:/c_root/electronics/DAVE_work_2019/pocket-nim/Dave/Generated/I2C_MASTER\i2c_master.h ****  * }
 356:C:/c_root/electronics/DAVE_work_2019/pocket-nim/Dave/Generated/I2C_MASTER\i2c_master.h ****  *
 357:C:/c_root/electronics/DAVE_work_2019/pocket-nim/Dave/Generated/I2C_MASTER\i2c_master.h ****  * @endcode<BR> </p>
 358:C:/c_root/electronics/DAVE_work_2019/pocket-nim/Dave/Generated/I2C_MASTER\i2c_master.h ****  *
 359:C:/c_root/electronics/DAVE_work_2019/pocket-nim/Dave/Generated/I2C_MASTER\i2c_master.h ****  */
 360:C:/c_root/electronics/DAVE_work_2019/pocket-nim/Dave/Generated/I2C_MASTER\i2c_master.h **** I2C_MASTER_STATUS_t I2C_MASTER_Receive(I2C_MASTER_t *handle, bool send_start, const uint32_t addres
 361:C:/c_root/electronics/DAVE_work_2019/pocket-nim/Dave/Generated/I2C_MASTER\i2c_master.h ****                                        uint8_t * data, const uint32_t count, bool send_stop, bool s
 362:C:/c_root/electronics/DAVE_work_2019/pocket-nim/Dave/Generated/I2C_MASTER\i2c_master.h **** 
 363:C:/c_root/electronics/DAVE_work_2019/pocket-nim/Dave/Generated/I2C_MASTER\i2c_master.h **** /**
 364:C:/c_root/electronics/DAVE_work_2019/pocket-nim/Dave/Generated/I2C_MASTER\i2c_master.h ****  * @brief Transmits data to I2C slave device.
 365:C:/c_root/electronics/DAVE_work_2019/pocket-nim/Dave/Generated/I2C_MASTER\i2c_master.h ****  *
 366:C:/c_root/electronics/DAVE_work_2019/pocket-nim/Dave/Generated/I2C_MASTER\i2c_master.h ****  * @param  handle I2C device handle of type I2C_MASTER_t*
 367:C:/c_root/electronics/DAVE_work_2019/pocket-nim/Dave/Generated/I2C_MASTER\i2c_master.h ****  * @param  send_start The flag to indicate that the start condition need to be send.
 368:C:/c_root/electronics/DAVE_work_2019/pocket-nim/Dave/Generated/I2C_MASTER\i2c_master.h ****  * @param  address I2C slave device address.
 369:C:/c_root/electronics/DAVE_work_2019/pocket-nim/Dave/Generated/I2C_MASTER\i2c_master.h ****  * @param  data buffer containing the data to transmit.
 370:C:/c_root/electronics/DAVE_work_2019/pocket-nim/Dave/Generated/I2C_MASTER\i2c_master.h ****  * @param  size The number of bytes to be send to slave.
 371:C:/c_root/electronics/DAVE_work_2019/pocket-nim/Dave/Generated/I2C_MASTER\i2c_master.h ****  * @param  send_stop The flag to indicate that the stop condition need to be send.
 372:C:/c_root/electronics/DAVE_work_2019/pocket-nim/Dave/Generated/I2C_MASTER\i2c_master.h ****  *
 373:C:/c_root/electronics/DAVE_work_2019/pocket-nim/Dave/Generated/I2C_MASTER\i2c_master.h ****  * @return @ref I2C_MASTER_STATUS_t Status.
 374:C:/c_root/electronics/DAVE_work_2019/pocket-nim/Dave/Generated/I2C_MASTER\i2c_master.h ****  * \par<b>NOTE: </b><br>
 375:C:/c_root/electronics/DAVE_work_2019/pocket-nim/Dave/Generated/I2C_MASTER\i2c_master.h ****  * I2C_MASTER_Transmit API can be used in Interrupt and Direct modes.\n
 376:C:/c_root/electronics/DAVE_work_2019/pocket-nim/Dave/Generated/I2C_MASTER\i2c_master.h ****  * Address(address) should reserve an additional bit at the LSB for read/write indication. For exam
 377:C:/c_root/electronics/DAVE_work_2019/pocket-nim/Dave/Generated/I2C_MASTER\i2c_master.h ****  * be provided as 0x0a. If the address is 10-bit, only most significant bits with the 10-bit identi
 378:C:/c_root/electronics/DAVE_work_2019/pocket-nim/Dave/Generated/I2C_MASTER\i2c_master.h ****  * For example, if the 10-bit address is 0x305, the address should be provided as 0xf6(prepend with
 379:C:/c_root/electronics/DAVE_work_2019/pocket-nim/Dave/Generated/I2C_MASTER\i2c_master.h ****  * followed by 1-bit field for read/write). \n
 380:C:/c_root/electronics/DAVE_work_2019/pocket-nim/Dave/Generated/I2C_MASTER\i2c_master.h ****  * Pre-requisite: Instantiate I2C_MASTER APP and generate code before using below code snippet.
 381:C:/c_root/electronics/DAVE_work_2019/pocket-nim/Dave/Generated/I2C_MASTER\i2c_master.h ****  * 
 382:C:/c_root/electronics/DAVE_work_2019/pocket-nim/Dave/Generated/I2C_MASTER\i2c_master.h ****  * @code
 383:C:/c_root/electronics/DAVE_work_2019/pocket-nim/Dave/Generated/I2C_MASTER\i2c_master.h ****  *
 384:C:/c_root/electronics/DAVE_work_2019/pocket-nim/Dave/Generated/I2C_MASTER\i2c_master.h ****  *  #include <DAVE.h>
 385:C:/c_root/electronics/DAVE_work_2019/pocket-nim/Dave/Generated/I2C_MASTER\i2c_master.h ****  *  #define SLAVE_ADDRESS (0xA0)
 386:C:/c_root/electronics/DAVE_work_2019/pocket-nim/Dave/Generated/I2C_MASTER\i2c_master.h ****  *  typedef enum PCA9502_REGADDR {
 387:C:/c_root/electronics/DAVE_work_2019/pocket-nim/Dave/Generated/I2C_MASTER\i2c_master.h ****  *    IO_DIR    = 0xA << 3,
 388:C:/c_root/electronics/DAVE_work_2019/pocket-nim/Dave/Generated/I2C_MASTER\i2c_master.h ****  *    IO_STATE  = 0xB << 3,
 389:C:/c_root/electronics/DAVE_work_2019/pocket-nim/Dave/Generated/I2C_MASTER\i2c_master.h ****  *    IO_INTE   = 0xC << 3,
 390:C:/c_root/electronics/DAVE_work_2019/pocket-nim/Dave/Generated/I2C_MASTER\i2c_master.h ****  *    IO_CTRL   = 0xE << 3
 391:C:/c_root/electronics/DAVE_work_2019/pocket-nim/Dave/Generated/I2C_MASTER\i2c_master.h ****  *  } PCA9502_REGADDR_t;
 392:C:/c_root/electronics/DAVE_work_2019/pocket-nim/Dave/Generated/I2C_MASTER\i2c_master.h ****  *
 393:C:/c_root/electronics/DAVE_work_2019/pocket-nim/Dave/Generated/I2C_MASTER\i2c_master.h ****  *  uint8_t tx_buffer[64] = {0x01,0x02,0x03,0x04,0x05};
 394:C:/c_root/electronics/DAVE_work_2019/pocket-nim/Dave/Generated/I2C_MASTER\i2c_master.h ****  *  uint8_t mem_address[2];
 395:C:/c_root/electronics/DAVE_work_2019/pocket-nim/Dave/Generated/I2C_MASTER\i2c_master.h ****  *
 396:C:/c_root/electronics/DAVE_work_2019/pocket-nim/Dave/Generated/I2C_MASTER\i2c_master.h ****  *  int main(void)
 397:C:/c_root/electronics/DAVE_work_2019/pocket-nim/Dave/Generated/I2C_MASTER\i2c_master.h ****  *  {
 398:C:/c_root/electronics/DAVE_work_2019/pocket-nim/Dave/Generated/I2C_MASTER\i2c_master.h ****  *    DAVE_STATUS_t init_status;
 399:C:/c_root/electronics/DAVE_work_2019/pocket-nim/Dave/Generated/I2C_MASTER\i2c_master.h ****  *    init_status = DAVE_Init();
 400:C:/c_root/electronics/DAVE_work_2019/pocket-nim/Dave/Generated/I2C_MASTER\i2c_master.h ****  *    if(init_status == DAVE_STATUS_SUCCESS)
 401:C:/c_root/electronics/DAVE_work_2019/pocket-nim/Dave/Generated/I2C_MASTER\i2c_master.h ****  *    {
 402:C:/c_root/electronics/DAVE_work_2019/pocket-nim/Dave/Generated/I2C_MASTER\i2c_master.h ****  *      mem_address[0] = IO_STATE;//memory which need to be read from slave
 403:C:/c_root/electronics/DAVE_work_2019/pocket-nim/Dave/Generated/I2C_MASTER\i2c_master.h ****  *      //Write data to IO EXPANDER
 404:C:/c_root/electronics/DAVE_work_2019/pocket-nim/Dave/Generated/I2C_MASTER\i2c_master.h ****  *      I2C_MASTER_Transmit(&I2C_MASTER_0,true,SLAVE_ADDRESS,mem_address,1,false);
 405:C:/c_root/electronics/DAVE_work_2019/pocket-nim/Dave/Generated/I2C_MASTER\i2c_master.h ****  *      while(I2C_MASTER_IsTxBusy(&I2C_MASTER_0));
 406:C:/c_root/electronics/DAVE_work_2019/pocket-nim/Dave/Generated/I2C_MASTER\i2c_master.h ****  *
 407:C:/c_root/electronics/DAVE_work_2019/pocket-nim/Dave/Generated/I2C_MASTER\i2c_master.h ****  *      I2C_MASTER_Transmit(&I2C_MASTER_0,false,SLAVE_ADDRESS,tx_buffer,5,true);
 408:C:/c_root/electronics/DAVE_work_2019/pocket-nim/Dave/Generated/I2C_MASTER\i2c_master.h ****  *      while(I2C_MASTER_IsTxBusy(&I2C_MASTER_0));
 409:C:/c_root/electronics/DAVE_work_2019/pocket-nim/Dave/Generated/I2C_MASTER\i2c_master.h ****  *    }
 410:C:/c_root/electronics/DAVE_work_2019/pocket-nim/Dave/Generated/I2C_MASTER\i2c_master.h ****  *    while(1)
 411:C:/c_root/electronics/DAVE_work_2019/pocket-nim/Dave/Generated/I2C_MASTER\i2c_master.h ****  *    { }
 412:C:/c_root/electronics/DAVE_work_2019/pocket-nim/Dave/Generated/I2C_MASTER\i2c_master.h **** 
 413:C:/c_root/electronics/DAVE_work_2019/pocket-nim/Dave/Generated/I2C_MASTER\i2c_master.h ****  *   return 0;
 414:C:/c_root/electronics/DAVE_work_2019/pocket-nim/Dave/Generated/I2C_MASTER\i2c_master.h ****  * }
 415:C:/c_root/electronics/DAVE_work_2019/pocket-nim/Dave/Generated/I2C_MASTER\i2c_master.h ****  *
 416:C:/c_root/electronics/DAVE_work_2019/pocket-nim/Dave/Generated/I2C_MASTER\i2c_master.h ****  * @endcode<BR> </p>
 417:C:/c_root/electronics/DAVE_work_2019/pocket-nim/Dave/Generated/I2C_MASTER\i2c_master.h ****  *
 418:C:/c_root/electronics/DAVE_work_2019/pocket-nim/Dave/Generated/I2C_MASTER\i2c_master.h ****  */
 419:C:/c_root/electronics/DAVE_work_2019/pocket-nim/Dave/Generated/I2C_MASTER\i2c_master.h **** I2C_MASTER_STATUS_t I2C_MASTER_Transmit(I2C_MASTER_t *handle, bool send_start, const uint32_t addre
 420:C:/c_root/electronics/DAVE_work_2019/pocket-nim/Dave/Generated/I2C_MASTER\i2c_master.h **** 		                                uint8_t *data, const uint32_t size, bool send_stop);
 421:C:/c_root/electronics/DAVE_work_2019/pocket-nim/Dave/Generated/I2C_MASTER\i2c_master.h **** 
 422:C:/c_root/electronics/DAVE_work_2019/pocket-nim/Dave/Generated/I2C_MASTER\i2c_master.h **** /**
 423:C:/c_root/electronics/DAVE_work_2019/pocket-nim/Dave/Generated/I2C_MASTER\i2c_master.h ****  * @brief Get the I2C flag status.
 424:C:/c_root/electronics/DAVE_work_2019/pocket-nim/Dave/Generated/I2C_MASTER\i2c_master.h ****  *
 425:C:/c_root/electronics/DAVE_work_2019/pocket-nim/Dave/Generated/I2C_MASTER\i2c_master.h ****  * @param  handle I2C device handle of type I2C_MASTER_t*
 426:C:/c_root/electronics/DAVE_work_2019/pocket-nim/Dave/Generated/I2C_MASTER\i2c_master.h ****  * @param  flagtype   single or multiple flags, whose status need to be checked.
 427:C:/c_root/electronics/DAVE_work_2019/pocket-nim/Dave/Generated/I2C_MASTER\i2c_master.h ****  *			 	      bitwise OR operation on elements of enum XMC_I2C_CH_STATUS_FLAG_t can be used to selec
 428:C:/c_root/electronics/DAVE_work_2019/pocket-nim/Dave/Generated/I2C_MASTER\i2c_master.h ****  *                    multiple flags.
 429:C:/c_root/electronics/DAVE_work_2019/pocket-nim/Dave/Generated/I2C_MASTER\i2c_master.h ****  *
 430:C:/c_root/electronics/DAVE_work_2019/pocket-nim/Dave/Generated/I2C_MASTER\i2c_master.h ****  * @return uint32_t Flag status.
 431:C:/c_root/electronics/DAVE_work_2019/pocket-nim/Dave/Generated/I2C_MASTER\i2c_master.h ****  *
 432:C:/c_root/electronics/DAVE_work_2019/pocket-nim/Dave/Generated/I2C_MASTER\i2c_master.h ****  * Pre-requisite: Instantiate I2C_MASTER APP and generate code before using below code snippet.
 433:C:/c_root/electronics/DAVE_work_2019/pocket-nim/Dave/Generated/I2C_MASTER\i2c_master.h ****  *
 434:C:/c_root/electronics/DAVE_work_2019/pocket-nim/Dave/Generated/I2C_MASTER\i2c_master.h ****  * @code
 435:C:/c_root/electronics/DAVE_work_2019/pocket-nim/Dave/Generated/I2C_MASTER\i2c_master.h ****  *
 436:C:/c_root/electronics/DAVE_work_2019/pocket-nim/Dave/Generated/I2C_MASTER\i2c_master.h ****  *  #include <DAVE.h>
 437:C:/c_root/electronics/DAVE_work_2019/pocket-nim/Dave/Generated/I2C_MASTER\i2c_master.h ****  *
 438:C:/c_root/electronics/DAVE_work_2019/pocket-nim/Dave/Generated/I2C_MASTER\i2c_master.h ****  *  #define SLAVE_ADDRESS (0xA0)
 439:C:/c_root/electronics/DAVE_work_2019/pocket-nim/Dave/Generated/I2C_MASTER\i2c_master.h ****  *  int main(void)
 440:C:/c_root/electronics/DAVE_work_2019/pocket-nim/Dave/Generated/I2C_MASTER\i2c_master.h ****  *  {
 441:C:/c_root/electronics/DAVE_work_2019/pocket-nim/Dave/Generated/I2C_MASTER\i2c_master.h ****  *    DAVE_STATUS_t init_status;
 442:C:/c_root/electronics/DAVE_work_2019/pocket-nim/Dave/Generated/I2C_MASTER\i2c_master.h ****  *    init_status = DAVE_Init();
 443:C:/c_root/electronics/DAVE_work_2019/pocket-nim/Dave/Generated/I2C_MASTER\i2c_master.h ****  *    if(init_status == DAVE_STATUS_SUCCESS)
 444:C:/c_root/electronics/DAVE_work_2019/pocket-nim/Dave/Generated/I2C_MASTER\i2c_master.h ****  *    {
 445:C:/c_root/electronics/DAVE_work_2019/pocket-nim/Dave/Generated/I2C_MASTER\i2c_master.h ****  *      I2C_MASTER_SendStart(&I2C_MASTER_0, SLAVE_ADDRESS, XMC_I2C_CH_CMD_WRITE);
 446:C:/c_root/electronics/DAVE_work_2019/pocket-nim/Dave/Generated/I2C_MASTER\i2c_master.h ****  *      while(I2C_MASTER_GetFlagStatus(&I2C_MASTER_0, XMC_I2C_CH_STATUS_FLAG_ACK_RECEIVED) == 0U)
 447:C:/c_root/electronics/DAVE_work_2019/pocket-nim/Dave/Generated/I2C_MASTER\i2c_master.h ****  *      {
 448:C:/c_root/electronics/DAVE_work_2019/pocket-nim/Dave/Generated/I2C_MASTER\i2c_master.h ****  *       // wait for ACK
 449:C:/c_root/electronics/DAVE_work_2019/pocket-nim/Dave/Generated/I2C_MASTER\i2c_master.h ****  *      }
 450:C:/c_root/electronics/DAVE_work_2019/pocket-nim/Dave/Generated/I2C_MASTER\i2c_master.h ****  *    }
 451:C:/c_root/electronics/DAVE_work_2019/pocket-nim/Dave/Generated/I2C_MASTER\i2c_master.h ****  *    while(1)
 452:C:/c_root/electronics/DAVE_work_2019/pocket-nim/Dave/Generated/I2C_MASTER\i2c_master.h ****  *    {}
 453:C:/c_root/electronics/DAVE_work_2019/pocket-nim/Dave/Generated/I2C_MASTER\i2c_master.h ****  *
 454:C:/c_root/electronics/DAVE_work_2019/pocket-nim/Dave/Generated/I2C_MASTER\i2c_master.h ****  *   return 0;
 455:C:/c_root/electronics/DAVE_work_2019/pocket-nim/Dave/Generated/I2C_MASTER\i2c_master.h ****  *  }
 456:C:/c_root/electronics/DAVE_work_2019/pocket-nim/Dave/Generated/I2C_MASTER\i2c_master.h ****  *
 457:C:/c_root/electronics/DAVE_work_2019/pocket-nim/Dave/Generated/I2C_MASTER\i2c_master.h ****  * @endcode<BR> </p>
 458:C:/c_root/electronics/DAVE_work_2019/pocket-nim/Dave/Generated/I2C_MASTER\i2c_master.h ****  *
 459:C:/c_root/electronics/DAVE_work_2019/pocket-nim/Dave/Generated/I2C_MASTER\i2c_master.h ****  */
 460:C:/c_root/electronics/DAVE_work_2019/pocket-nim/Dave/Generated/I2C_MASTER\i2c_master.h **** uint32_t I2C_MASTER_GetFlagStatus(const I2C_MASTER_t *handle, uint32_t flagtype);
 461:C:/c_root/electronics/DAVE_work_2019/pocket-nim/Dave/Generated/I2C_MASTER\i2c_master.h **** 
 462:C:/c_root/electronics/DAVE_work_2019/pocket-nim/Dave/Generated/I2C_MASTER\i2c_master.h **** /**
 463:C:/c_root/electronics/DAVE_work_2019/pocket-nim/Dave/Generated/I2C_MASTER\i2c_master.h ****  * @brief Clear the I2C flag status.
 464:C:/c_root/electronics/DAVE_work_2019/pocket-nim/Dave/Generated/I2C_MASTER\i2c_master.h ****  *
 465:C:/c_root/electronics/DAVE_work_2019/pocket-nim/Dave/Generated/I2C_MASTER\i2c_master.h ****  * @param  handle I2C device handle of type I2C_MASTER_t*
 466:C:/c_root/electronics/DAVE_work_2019/pocket-nim/Dave/Generated/I2C_MASTER\i2c_master.h ****  * @param  flagtype   single or multiple flags, whose status need to be checked.
 467:C:/c_root/electronics/DAVE_work_2019/pocket-nim/Dave/Generated/I2C_MASTER\i2c_master.h ****  *                    The bitwise OR operation on elements of enum XMC_I2C_CH_STATUS_FLAG_t can be 
 468:C:/c_root/electronics/DAVE_work_2019/pocket-nim/Dave/Generated/I2C_MASTER\i2c_master.h ****  *                    multiple flags.
 469:C:/c_root/electronics/DAVE_work_2019/pocket-nim/Dave/Generated/I2C_MASTER\i2c_master.h ****  *
 470:C:/c_root/electronics/DAVE_work_2019/pocket-nim/Dave/Generated/I2C_MASTER\i2c_master.h ****  * @return None <BR>
 471:C:/c_root/electronics/DAVE_work_2019/pocket-nim/Dave/Generated/I2C_MASTER\i2c_master.h ****  * Pre-requisite: Instantiate I2C_MASTER APP and generate code before using below code snippet.
 472:C:/c_root/electronics/DAVE_work_2019/pocket-nim/Dave/Generated/I2C_MASTER\i2c_master.h ****  * @code
 473:C:/c_root/electronics/DAVE_work_2019/pocket-nim/Dave/Generated/I2C_MASTER\i2c_master.h ****  *
 474:C:/c_root/electronics/DAVE_work_2019/pocket-nim/Dave/Generated/I2C_MASTER\i2c_master.h ****  *  #include <DAVE.h>
 475:C:/c_root/electronics/DAVE_work_2019/pocket-nim/Dave/Generated/I2C_MASTER\i2c_master.h ****  *
 476:C:/c_root/electronics/DAVE_work_2019/pocket-nim/Dave/Generated/I2C_MASTER\i2c_master.h ****  *  #define SLAVE_ADDRESS (0xA0)
 477:C:/c_root/electronics/DAVE_work_2019/pocket-nim/Dave/Generated/I2C_MASTER\i2c_master.h ****  *  int main(void)
 478:C:/c_root/electronics/DAVE_work_2019/pocket-nim/Dave/Generated/I2C_MASTER\i2c_master.h ****  *  {
 479:C:/c_root/electronics/DAVE_work_2019/pocket-nim/Dave/Generated/I2C_MASTER\i2c_master.h ****  *    DAVE_STATUS_t init_status;
 480:C:/c_root/electronics/DAVE_work_2019/pocket-nim/Dave/Generated/I2C_MASTER\i2c_master.h ****  *
 481:C:/c_root/electronics/DAVE_work_2019/pocket-nim/Dave/Generated/I2C_MASTER\i2c_master.h ****  *    init_status = DAVE_Init();
 482:C:/c_root/electronics/DAVE_work_2019/pocket-nim/Dave/Generated/I2C_MASTER\i2c_master.h ****  *    if(init_status == DAVE_STATUS_SUCCESS)
 483:C:/c_root/electronics/DAVE_work_2019/pocket-nim/Dave/Generated/I2C_MASTER\i2c_master.h ****  *    {
 484:C:/c_root/electronics/DAVE_work_2019/pocket-nim/Dave/Generated/I2C_MASTER\i2c_master.h ****  *      I2C_MASTER_SendStart(&I2C_MASTER_0, SLAVE_ADDRESS, XMC_I2C_CH_CMD_WRITE);
 485:C:/c_root/electronics/DAVE_work_2019/pocket-nim/Dave/Generated/I2C_MASTER\i2c_master.h ****  *      while(I2C_MASTER_GetFlagStatus(&I2C_MASTER_0, XMC_I2C_CH_STATUS_FLAG_ACK_RECEIVED) == 0U)
 486:C:/c_root/electronics/DAVE_work_2019/pocket-nim/Dave/Generated/I2C_MASTER\i2c_master.h ****  *      {
 487:C:/c_root/electronics/DAVE_work_2019/pocket-nim/Dave/Generated/I2C_MASTER\i2c_master.h ****  *       // wait for ACK
 488:C:/c_root/electronics/DAVE_work_2019/pocket-nim/Dave/Generated/I2C_MASTER\i2c_master.h ****  *      }
 489:C:/c_root/electronics/DAVE_work_2019/pocket-nim/Dave/Generated/I2C_MASTER\i2c_master.h ****  *      I2C_MASTER_ClearFlag(&I2C_MASTER_0,XMC_I2C_CH_STATUS_FLAG_ACK_RECEIVED);
 490:C:/c_root/electronics/DAVE_work_2019/pocket-nim/Dave/Generated/I2C_MASTER\i2c_master.h ****  *    }
 491:C:/c_root/electronics/DAVE_work_2019/pocket-nim/Dave/Generated/I2C_MASTER\i2c_master.h ****  *    while(1)
 492:C:/c_root/electronics/DAVE_work_2019/pocket-nim/Dave/Generated/I2C_MASTER\i2c_master.h ****  *    {}
 493:C:/c_root/electronics/DAVE_work_2019/pocket-nim/Dave/Generated/I2C_MASTER\i2c_master.h ****  *
 494:C:/c_root/electronics/DAVE_work_2019/pocket-nim/Dave/Generated/I2C_MASTER\i2c_master.h ****  *   return 0;
 495:C:/c_root/electronics/DAVE_work_2019/pocket-nim/Dave/Generated/I2C_MASTER\i2c_master.h ****  * }
 496:C:/c_root/electronics/DAVE_work_2019/pocket-nim/Dave/Generated/I2C_MASTER\i2c_master.h ****  * @endcode<BR> </p>
 497:C:/c_root/electronics/DAVE_work_2019/pocket-nim/Dave/Generated/I2C_MASTER\i2c_master.h ****  *
 498:C:/c_root/electronics/DAVE_work_2019/pocket-nim/Dave/Generated/I2C_MASTER\i2c_master.h ****  */
 499:C:/c_root/electronics/DAVE_work_2019/pocket-nim/Dave/Generated/I2C_MASTER\i2c_master.h **** void I2C_MASTER_ClearFlag(const I2C_MASTER_t *handle, uint32_t flagtype);
 500:C:/c_root/electronics/DAVE_work_2019/pocket-nim/Dave/Generated/I2C_MASTER\i2c_master.h **** 
 501:C:/c_root/electronics/DAVE_work_2019/pocket-nim/Dave/Generated/I2C_MASTER\i2c_master.h **** /**
 502:C:/c_root/electronics/DAVE_work_2019/pocket-nim/Dave/Generated/I2C_MASTER\i2c_master.h ****  * @brief Aborts the ongoing data transmission.
 503:C:/c_root/electronics/DAVE_work_2019/pocket-nim/Dave/Generated/I2C_MASTER\i2c_master.h ****  * @param handle  I2C_MASTER APP handle pointer of type @ref I2C_MASTER_t
 504:C:/c_root/electronics/DAVE_work_2019/pocket-nim/Dave/Generated/I2C_MASTER\i2c_master.h ****  * @return I2C_MASTER_STATUS_t status
 505:C:/c_root/electronics/DAVE_work_2019/pocket-nim/Dave/Generated/I2C_MASTER\i2c_master.h ****  *
 506:C:/c_root/electronics/DAVE_work_2019/pocket-nim/Dave/Generated/I2C_MASTER\i2c_master.h ****  * \par<b>Description:</b><br>
 507:C:/c_root/electronics/DAVE_work_2019/pocket-nim/Dave/Generated/I2C_MASTER\i2c_master.h ****  * If there is a transmission in progress, it will be stopped. Once the transmission is stopped, 
 508:C:/c_root/electronics/DAVE_work_2019/pocket-nim/Dave/Generated/I2C_MASTER\i2c_master.h ****  * user can start a new transmission without delay.
 509:C:/c_root/electronics/DAVE_work_2019/pocket-nim/Dave/Generated/I2C_MASTER\i2c_master.h ****  *
 510:C:/c_root/electronics/DAVE_work_2019/pocket-nim/Dave/Generated/I2C_MASTER\i2c_master.h ****  * Pre-requisite: Instantiate I2C_MASTER APP and generate code before using below code snippet.
 511:C:/c_root/electronics/DAVE_work_2019/pocket-nim/Dave/Generated/I2C_MASTER\i2c_master.h ****  *
 512:C:/c_root/electronics/DAVE_work_2019/pocket-nim/Dave/Generated/I2C_MASTER\i2c_master.h ****  *
 513:C:/c_root/electronics/DAVE_work_2019/pocket-nim/Dave/Generated/I2C_MASTER\i2c_master.h ****  * Example Usage:
 514:C:/c_root/electronics/DAVE_work_2019/pocket-nim/Dave/Generated/I2C_MASTER\i2c_master.h ****  * @code
 515:C:/c_root/electronics/DAVE_work_2019/pocket-nim/Dave/Generated/I2C_MASTER\i2c_master.h ****  *
 516:C:/c_root/electronics/DAVE_work_2019/pocket-nim/Dave/Generated/I2C_MASTER\i2c_master.h ****  *  #include <DAVE.h>         //Declarations from DAVE Code Generation (includes SFR declaration)
 517:C:/c_root/electronics/DAVE_work_2019/pocket-nim/Dave/Generated/I2C_MASTER\i2c_master.h ****  *  #define SLAVE_ADDRESS 0xA0
 518:C:/c_root/electronics/DAVE_work_2019/pocket-nim/Dave/Generated/I2C_MASTER\i2c_master.h ****  *  uint8_t tx_buf[50] = "ABCDEFGHIJKLMNOPQRSTUVWXYZ";
 519:C:/c_root/electronics/DAVE_work_2019/pocket-nim/Dave/Generated/I2C_MASTER\i2c_master.h **** 
 520:C:/c_root/electronics/DAVE_work_2019/pocket-nim/Dave/Generated/I2C_MASTER\i2c_master.h ****  *  int main(void)
 521:C:/c_root/electronics/DAVE_work_2019/pocket-nim/Dave/Generated/I2C_MASTER\i2c_master.h ****  *  {
 522:C:/c_root/electronics/DAVE_work_2019/pocket-nim/Dave/Generated/I2C_MASTER\i2c_master.h ****  *    DAVE_STATUS_t init_status;
 523:C:/c_root/electronics/DAVE_work_2019/pocket-nim/Dave/Generated/I2C_MASTER\i2c_master.h ****  *    init_status = DAVE_Init();
 524:C:/c_root/electronics/DAVE_work_2019/pocket-nim/Dave/Generated/I2C_MASTER\i2c_master.h ****  *    if(init_status == DAVE_STATUS_SUCCESS)
 525:C:/c_root/electronics/DAVE_work_2019/pocket-nim/Dave/Generated/I2C_MASTER\i2c_master.h ****  *    {
 526:C:/c_root/electronics/DAVE_work_2019/pocket-nim/Dave/Generated/I2C_MASTER\i2c_master.h ****  *      I2C_MASTER_Transmit(&I2C_MASTER_0, true, SLAVE_ADDRESS, &tx_buf[0], 16, true);
 527:C:/c_root/electronics/DAVE_work_2019/pocket-nim/Dave/Generated/I2C_MASTER\i2c_master.h ****  *      I2C_MASTER_AbortTransmit(&I2C_MASTER_0);
 528:C:/c_root/electronics/DAVE_work_2019/pocket-nim/Dave/Generated/I2C_MASTER\i2c_master.h ****  *      I2C_MASTER_SendStop(&I2C_MASTER_0);
 529:C:/c_root/electronics/DAVE_work_2019/pocket-nim/Dave/Generated/I2C_MASTER\i2c_master.h ****  *      I2C_MASTER_Transmit(&I2C_MASTER_0, true, SLAVE_ADDRESS, &tx_buf[0], 16, true);
 530:C:/c_root/electronics/DAVE_work_2019/pocket-nim/Dave/Generated/I2C_MASTER\i2c_master.h ****  *      while(I2C_MASTER_IsTxBusy(&I2C_MASTER_0));
 531:C:/c_root/electronics/DAVE_work_2019/pocket-nim/Dave/Generated/I2C_MASTER\i2c_master.h ****  *    }
 532:C:/c_root/electronics/DAVE_work_2019/pocket-nim/Dave/Generated/I2C_MASTER\i2c_master.h ****  *    while(1U)
 533:C:/c_root/electronics/DAVE_work_2019/pocket-nim/Dave/Generated/I2C_MASTER\i2c_master.h ****  *    {
 534:C:/c_root/electronics/DAVE_work_2019/pocket-nim/Dave/Generated/I2C_MASTER\i2c_master.h ****  *    }
 535:C:/c_root/electronics/DAVE_work_2019/pocket-nim/Dave/Generated/I2C_MASTER\i2c_master.h ****  *
 536:C:/c_root/electronics/DAVE_work_2019/pocket-nim/Dave/Generated/I2C_MASTER\i2c_master.h ****  *    return 1U;
 537:C:/c_root/electronics/DAVE_work_2019/pocket-nim/Dave/Generated/I2C_MASTER\i2c_master.h ****  *  }
 538:C:/c_root/electronics/DAVE_work_2019/pocket-nim/Dave/Generated/I2C_MASTER\i2c_master.h ****  *
 539:C:/c_root/electronics/DAVE_work_2019/pocket-nim/Dave/Generated/I2C_MASTER\i2c_master.h ****  * @endcode
 540:C:/c_root/electronics/DAVE_work_2019/pocket-nim/Dave/Generated/I2C_MASTER\i2c_master.h ****  *
 541:C:/c_root/electronics/DAVE_work_2019/pocket-nim/Dave/Generated/I2C_MASTER\i2c_master.h ****  */
 542:C:/c_root/electronics/DAVE_work_2019/pocket-nim/Dave/Generated/I2C_MASTER\i2c_master.h **** I2C_MASTER_STATUS_t I2C_MASTER_AbortTransmit(const I2C_MASTER_t *const handle);
 543:C:/c_root/electronics/DAVE_work_2019/pocket-nim/Dave/Generated/I2C_MASTER\i2c_master.h **** 
 544:C:/c_root/electronics/DAVE_work_2019/pocket-nim/Dave/Generated/I2C_MASTER\i2c_master.h **** /**
 545:C:/c_root/electronics/DAVE_work_2019/pocket-nim/Dave/Generated/I2C_MASTER\i2c_master.h **** * @brief Stops the active data reception request.
 546:C:/c_root/electronics/DAVE_work_2019/pocket-nim/Dave/Generated/I2C_MASTER\i2c_master.h ****  * @param handle I2C_MASTER APP handle pointer of type @ref I2C_MASTER_t
 547:C:/c_root/electronics/DAVE_work_2019/pocket-nim/Dave/Generated/I2C_MASTER\i2c_master.h ****  * @return I2C_MASTER_STATUS_t status
 548:C:/c_root/electronics/DAVE_work_2019/pocket-nim/Dave/Generated/I2C_MASTER\i2c_master.h ****  *
 549:C:/c_root/electronics/DAVE_work_2019/pocket-nim/Dave/Generated/I2C_MASTER\i2c_master.h ****  * \par<b>Description:</b><br>
 550:C:/c_root/electronics/DAVE_work_2019/pocket-nim/Dave/Generated/I2C_MASTER\i2c_master.h ****  * If a reception is in progress, it will be stopped. When a reception request
 551:C:/c_root/electronics/DAVE_work_2019/pocket-nim/Dave/Generated/I2C_MASTER\i2c_master.h ****  * is active, user will not be able to place a new receive request till the active
 552:C:/c_root/electronics/DAVE_work_2019/pocket-nim/Dave/Generated/I2C_MASTER\i2c_master.h ****  * reception is complete. This API can stop the progressing reception to make
 553:C:/c_root/electronics/DAVE_work_2019/pocket-nim/Dave/Generated/I2C_MASTER\i2c_master.h ****  * a new receive request.
 554:C:/c_root/electronics/DAVE_work_2019/pocket-nim/Dave/Generated/I2C_MASTER\i2c_master.h ****  *
 555:C:/c_root/electronics/DAVE_work_2019/pocket-nim/Dave/Generated/I2C_MASTER\i2c_master.h ****  * Pre-requisite: Instantiate I2C_MASTER APP and generate code before using below code snippet.
 556:C:/c_root/electronics/DAVE_work_2019/pocket-nim/Dave/Generated/I2C_MASTER\i2c_master.h ****  *
 557:C:/c_root/electronics/DAVE_work_2019/pocket-nim/Dave/Generated/I2C_MASTER\i2c_master.h ****  * Example Usage:
 558:C:/c_root/electronics/DAVE_work_2019/pocket-nim/Dave/Generated/I2C_MASTER\i2c_master.h ****  * @code
 559:C:/c_root/electronics/DAVE_work_2019/pocket-nim/Dave/Generated/I2C_MASTER\i2c_master.h ****  *
 560:C:/c_root/electronics/DAVE_work_2019/pocket-nim/Dave/Generated/I2C_MASTER\i2c_master.h ****  *  #include <DAVE.h>         //Declarations from DAVE Code Generation (includes SFR declaration)
 561:C:/c_root/electronics/DAVE_work_2019/pocket-nim/Dave/Generated/I2C_MASTER\i2c_master.h ****  *  #define SLAVE_ADDRESS 0xA0
 562:C:/c_root/electronics/DAVE_work_2019/pocket-nim/Dave/Generated/I2C_MASTER\i2c_master.h ****  *  int main(void)
 563:C:/c_root/electronics/DAVE_work_2019/pocket-nim/Dave/Generated/I2C_MASTER\i2c_master.h ****  *  {
 564:C:/c_root/electronics/DAVE_work_2019/pocket-nim/Dave/Generated/I2C_MASTER\i2c_master.h ****  *   uint8_t rx_buf[25];
 565:C:/c_root/electronics/DAVE_work_2019/pocket-nim/Dave/Generated/I2C_MASTER\i2c_master.h ****  *   uint8_t tx_buf[2];
 566:C:/c_root/electronics/DAVE_work_2019/pocket-nim/Dave/Generated/I2C_MASTER\i2c_master.h ****  *   DAVE_STATUS_t init_status;
 567:C:/c_root/electronics/DAVE_work_2019/pocket-nim/Dave/Generated/I2C_MASTER\i2c_master.h ****  *   init_status = DAVE_Init();
 568:C:/c_root/electronics/DAVE_work_2019/pocket-nim/Dave/Generated/I2C_MASTER\i2c_master.h ****  *   if(init_status == DAVE_STATUS_SUCCESS)
 569:C:/c_root/electronics/DAVE_work_2019/pocket-nim/Dave/Generated/I2C_MASTER\i2c_master.h ****  *   {
 570:C:/c_root/electronics/DAVE_work_2019/pocket-nim/Dave/Generated/I2C_MASTER\i2c_master.h ****  *     //send the address from which data to be transfered
 571:C:/c_root/electronics/DAVE_work_2019/pocket-nim/Dave/Generated/I2C_MASTER\i2c_master.h ****  *     tx_buf[0] = 0;
 572:C:/c_root/electronics/DAVE_work_2019/pocket-nim/Dave/Generated/I2C_MASTER\i2c_master.h ****  *     I2C_MASTER_Transmit(&I2C_MASTER_0, true, SLAVE_ADDRESS, &tx_buf[0], 1, false);
 573:C:/c_root/electronics/DAVE_work_2019/pocket-nim/Dave/Generated/I2C_MASTER\i2c_master.h ****  *     while(I2C_MASTER_IsTxBusy(&I2C_MASTER_0));
 574:C:/c_root/electronics/DAVE_work_2019/pocket-nim/Dave/Generated/I2C_MASTER\i2c_master.h ****  *     I2C_MASTER_Receive(&I2C_MASTER_0, true, SLAVE_ADDRESS, &rx_buf[0], 16, true, true);
 575:C:/c_root/electronics/DAVE_work_2019/pocket-nim/Dave/Generated/I2C_MASTER\i2c_master.h ****  *     I2C_MASTER_AbortReceive(&I2C_MASTER_0);
 576:C:/c_root/electronics/DAVE_work_2019/pocket-nim/Dave/Generated/I2C_MASTER\i2c_master.h ****  *     I2C_MASTER_SendStop(&I2C_MASTER_0);
 577:C:/c_root/electronics/DAVE_work_2019/pocket-nim/Dave/Generated/I2C_MASTER\i2c_master.h ****  *     I2C_MASTER_Transmit(&I2C_MASTER_0, true, SLAVE_ADDRESS, &tx_buf[0], 1, false);
 578:C:/c_root/electronics/DAVE_work_2019/pocket-nim/Dave/Generated/I2C_MASTER\i2c_master.h ****  *     while(I2C_MASTER_IsTxBusy(&I2C_MASTER_0));
 579:C:/c_root/electronics/DAVE_work_2019/pocket-nim/Dave/Generated/I2C_MASTER\i2c_master.h ****  *     I2C_MASTER_Receive(&I2C_MASTER_0, true, SLAVE_ADDRESS, &rx_buf[0], 16, true, true);
 580:C:/c_root/electronics/DAVE_work_2019/pocket-nim/Dave/Generated/I2C_MASTER\i2c_master.h ****  *     while(I2C_MASTER_IsRxBusy(&I2C_MASTER_0));
 581:C:/c_root/electronics/DAVE_work_2019/pocket-nim/Dave/Generated/I2C_MASTER\i2c_master.h ****  *   }
 582:C:/c_root/electronics/DAVE_work_2019/pocket-nim/Dave/Generated/I2C_MASTER\i2c_master.h ****  *   while(1U)
 583:C:/c_root/electronics/DAVE_work_2019/pocket-nim/Dave/Generated/I2C_MASTER\i2c_master.h ****  *   {
 584:C:/c_root/electronics/DAVE_work_2019/pocket-nim/Dave/Generated/I2C_MASTER\i2c_master.h ****  *   }
 585:C:/c_root/electronics/DAVE_work_2019/pocket-nim/Dave/Generated/I2C_MASTER\i2c_master.h ****  *
 586:C:/c_root/electronics/DAVE_work_2019/pocket-nim/Dave/Generated/I2C_MASTER\i2c_master.h ****  *   return 1U;
 587:C:/c_root/electronics/DAVE_work_2019/pocket-nim/Dave/Generated/I2C_MASTER\i2c_master.h ****  * }
 588:C:/c_root/electronics/DAVE_work_2019/pocket-nim/Dave/Generated/I2C_MASTER\i2c_master.h ****  *
 589:C:/c_root/electronics/DAVE_work_2019/pocket-nim/Dave/Generated/I2C_MASTER\i2c_master.h ****  * @endcode
 590:C:/c_root/electronics/DAVE_work_2019/pocket-nim/Dave/Generated/I2C_MASTER\i2c_master.h ****  *
 591:C:/c_root/electronics/DAVE_work_2019/pocket-nim/Dave/Generated/I2C_MASTER\i2c_master.h ****  */
 592:C:/c_root/electronics/DAVE_work_2019/pocket-nim/Dave/Generated/I2C_MASTER\i2c_master.h **** I2C_MASTER_STATUS_t I2C_MASTER_AbortReceive(const I2C_MASTER_t *const handle);
 593:C:/c_root/electronics/DAVE_work_2019/pocket-nim/Dave/Generated/I2C_MASTER\i2c_master.h **** 
 594:C:/c_root/electronics/DAVE_work_2019/pocket-nim/Dave/Generated/I2C_MASTER\i2c_master.h **** 
 595:C:/c_root/electronics/DAVE_work_2019/pocket-nim/Dave/Generated/I2C_MASTER\i2c_master.h **** #if (I2C_MASTER_DMA_TX_ENABLED == 1U)
 596:C:/c_root/electronics/DAVE_work_2019/pocket-nim/Dave/Generated/I2C_MASTER\i2c_master.h **** /**
 597:C:/c_root/electronics/DAVE_work_2019/pocket-nim/Dave/Generated/I2C_MASTER\i2c_master.h ****  * @brief Registers a request for transmitting data over I2C channel using DMA.
 598:C:/c_root/electronics/DAVE_work_2019/pocket-nim/Dave/Generated/I2C_MASTER\i2c_master.h ****  *
 599:C:/c_root/electronics/DAVE_work_2019/pocket-nim/Dave/Generated/I2C_MASTER\i2c_master.h ****  * @param  handle  I2C_MASTER APP handle pointer of type @ref I2C_MASTER_t
 600:C:/c_root/electronics/DAVE_work_2019/pocket-nim/Dave/Generated/I2C_MASTER\i2c_master.h ****  * @param  block_size size of the block
 601:C:/c_root/electronics/DAVE_work_2019/pocket-nim/Dave/Generated/I2C_MASTER\i2c_master.h ****  * @param  addr    address\n
 602:C:/c_root/electronics/DAVE_work_2019/pocket-nim/Dave/Generated/I2C_MASTER\i2c_master.h ****  * \b Range: minimum= 1, maximum= 4095.
 603:C:/c_root/electronics/DAVE_work_2019/pocket-nim/Dave/Generated/I2C_MASTER\i2c_master.h ****  *
 604:C:/c_root/electronics/DAVE_work_2019/pocket-nim/Dave/Generated/I2C_MASTER\i2c_master.h ****  * @return  I2C_MASTER_STATUS_t: Status of transmit request.\n
 605:C:/c_root/electronics/DAVE_work_2019/pocket-nim/Dave/Generated/I2C_MASTER\i2c_master.h ****  *                        @ref I2C_MASTER_STATUS_SUCCESS if the request is accepted.\n
 606:C:/c_root/electronics/DAVE_work_2019/pocket-nim/Dave/Generated/I2C_MASTER\i2c_master.h ****  *                        @ref I2C_MASTER_STATUS_BUSY if a transmission is in progress.\n
 607:C:/c_root/electronics/DAVE_work_2019/pocket-nim/Dave/Generated/I2C_MASTER\i2c_master.h ****  *
 608:C:/c_root/electronics/DAVE_work_2019/pocket-nim/Dave/Generated/I2C_MASTER\i2c_master.h ****  * <i>Imp Note:</i> Return value should be validated by user to ensure that the
 609:C:/c_root/electronics/DAVE_work_2019/pocket-nim/Dave/Generated/I2C_MASTER\i2c_master.h ****  * request is registered.
 610:C:/c_root/electronics/DAVE_work_2019/pocket-nim/Dave/Generated/I2C_MASTER\i2c_master.h ****  *
 611:C:/c_root/electronics/DAVE_work_2019/pocket-nim/Dave/Generated/I2C_MASTER\i2c_master.h ****  * \par<b>Description:</b><br>
 612:C:/c_root/electronics/DAVE_work_2019/pocket-nim/Dave/Generated/I2C_MASTER\i2c_master.h ****  * The data transmission is accomplished using DMA. User can configure a callback function in the A
 613:C:/c_root/electronics/DAVE_work_2019/pocket-nim/Dave/Generated/I2C_MASTER\i2c_master.h ****  * When the data is fully transmitted, the callback function will be executed. The function uses AP
 614:C:/c_root/electronics/DAVE_work_2019/pocket-nim/Dave/Generated/I2C_MASTER\i2c_master.h ****  * structure to store the status of transmission.
 615:C:/c_root/electronics/DAVE_work_2019/pocket-nim/Dave/Generated/I2C_MASTER\i2c_master.h ****  * This function only registers a data transmission request, if there is no active transmission in 
 616:C:/c_root/electronics/DAVE_work_2019/pocket-nim/Dave/Generated/I2C_MASTER\i2c_master.h ****  * Actual data transmission happens through DMA channel.
 617:C:/c_root/electronics/DAVE_work_2019/pocket-nim/Dave/Generated/I2C_MASTER\i2c_master.h ****  * A maximum of 4095 bytes can be transmitted in one API call. This limit is because of the DMA sin
 618:C:/c_root/electronics/DAVE_work_2019/pocket-nim/Dave/Generated/I2C_MASTER\i2c_master.h ****  * Callback function is executed when all the data bytes are transmitted.
 619:C:/c_root/electronics/DAVE_work_2019/pocket-nim/Dave/Generated/I2C_MASTER\i2c_master.h ****  * If a callback function is not configured, user has to poll for the value of \a tx_busy flag of
 620:C:/c_root/electronics/DAVE_work_2019/pocket-nim/Dave/Generated/I2C_MASTER\i2c_master.h ****  * the APP handle structure( \a handle->runtime->tx_busy ) to check for
 621:C:/c_root/electronics/DAVE_work_2019/pocket-nim/Dave/Generated/I2C_MASTER\i2c_master.h ****  * the completion of data transmission.
 622:C:/c_root/electronics/DAVE_work_2019/pocket-nim/Dave/Generated/I2C_MASTER\i2c_master.h ****  * If data more than the block size of 4095 have to be transmitted, user will have to transmit them
 623:C:/c_root/electronics/DAVE_work_2019/pocket-nim/Dave/Generated/I2C_MASTER\i2c_master.h ****  * calls to this API.
 624:C:/c_root/electronics/DAVE_work_2019/pocket-nim/Dave/Generated/I2C_MASTER\i2c_master.h ****  * \par<b>NOTE: </b><br>
 625:C:/c_root/electronics/DAVE_work_2019/pocket-nim/Dave/Generated/I2C_MASTER\i2c_master.h ****  * I2C_MASTER_StartTransmitDMA API can be used in DMA mode.
 626:C:/c_root/electronics/DAVE_work_2019/pocket-nim/Dave/Generated/I2C_MASTER\i2c_master.h ****  * Transmit should be configured as "DMA" mode in advanced settings tab. \n
 627:C:/c_root/electronics/DAVE_work_2019/pocket-nim/Dave/Generated/I2C_MASTER\i2c_master.h ****  * Address(addr) should reserve an additional bit at the LSB for read/write indication. For example
 628:C:/c_root/electronics/DAVE_work_2019/pocket-nim/Dave/Generated/I2C_MASTER\i2c_master.h ****  * be provided as 0x0a. If the address is 10-bit, only most significant bits with the 10-bit identi
 629:C:/c_root/electronics/DAVE_work_2019/pocket-nim/Dave/Generated/I2C_MASTER\i2c_master.h ****  * For example, if the 10-bit address is 0x305, the address should be provided as 0xf6(prepend with
 630:C:/c_root/electronics/DAVE_work_2019/pocket-nim/Dave/Generated/I2C_MASTER\i2c_master.h ****  * followed by 1-bit field for read/write).<br>
 631:C:/c_root/electronics/DAVE_work_2019/pocket-nim/Dave/Generated/I2C_MASTER\i2c_master.h ****  * Example Usage:
 632:C:/c_root/electronics/DAVE_work_2019/pocket-nim/Dave/Generated/I2C_MASTER\i2c_master.h ****  *
 633:C:/c_root/electronics/DAVE_work_2019/pocket-nim/Dave/Generated/I2C_MASTER\i2c_master.h ****  * @code
 634:C:/c_root/electronics/DAVE_work_2019/pocket-nim/Dave/Generated/I2C_MASTER\i2c_master.h ****  *
 635:C:/c_root/electronics/DAVE_work_2019/pocket-nim/Dave/Generated/I2C_MASTER\i2c_master.h ****  *  #include <DAVE.h>         //Declarations from DAVE Code Generation (includes SFR declaration)
 636:C:/c_root/electronics/DAVE_work_2019/pocket-nim/Dave/Generated/I2C_MASTER\i2c_master.h ****  *  #define SLAVE_ADDRESS 0xA0
 637:C:/c_root/electronics/DAVE_work_2019/pocket-nim/Dave/Generated/I2C_MASTER\i2c_master.h ****  *  uint8_t Send_Data[] = "Infineon Technologies";
 638:C:/c_root/electronics/DAVE_work_2019/pocket-nim/Dave/Generated/I2C_MASTER\i2c_master.h ****  *  int main(void)
 639:C:/c_root/electronics/DAVE_work_2019/pocket-nim/Dave/Generated/I2C_MASTER\i2c_master.h ****  *  {
 640:C:/c_root/electronics/DAVE_work_2019/pocket-nim/Dave/Generated/I2C_MASTER\i2c_master.h ****  *    DAVE_STATUS_t init_status;
 641:C:/c_root/electronics/DAVE_work_2019/pocket-nim/Dave/Generated/I2C_MASTER\i2c_master.h ****  *
 642:C:/c_root/electronics/DAVE_work_2019/pocket-nim/Dave/Generated/I2C_MASTER\i2c_master.h ****  *    init_status = DAVE_Init();
 643:C:/c_root/electronics/DAVE_work_2019/pocket-nim/Dave/Generated/I2C_MASTER\i2c_master.h ****  *    if(init_status == DAVE_STATUS_SUCCESS)
 644:C:/c_root/electronics/DAVE_work_2019/pocket-nim/Dave/Generated/I2C_MASTER\i2c_master.h ****  *    {
 645:C:/c_root/electronics/DAVE_work_2019/pocket-nim/Dave/Generated/I2C_MASTER\i2c_master.h ****  *      I2C_MASTER_SendStart(&I2C_MASTER_0, SLAVE_ADDRESS, XMC_I2C_CH_CMD_WRITE);
 646:C:/c_root/electronics/DAVE_work_2019/pocket-nim/Dave/Generated/I2C_MASTER\i2c_master.h ****  *	    while(I2C_MASTER_GetFlagStatus(&I2C_MASTER_0, XMC_I2C_CH_STATUS_FLAG_ACK_RECEIVED) == 0U)
 647:C:/c_root/electronics/DAVE_work_2019/pocket-nim/Dave/Generated/I2C_MASTER\i2c_master.h ****  *	    {
 648:C:/c_root/electronics/DAVE_work_2019/pocket-nim/Dave/Generated/I2C_MASTER\i2c_master.h ****  *	      // wait for ACK
 649:C:/c_root/electronics/DAVE_work_2019/pocket-nim/Dave/Generated/I2C_MASTER\i2c_master.h ****  *	    }
 650:C:/c_root/electronics/DAVE_work_2019/pocket-nim/Dave/Generated/I2C_MASTER\i2c_master.h ****  *      I2C_MASTER_ClearFlag(&I2C_MASTER_0,XMC_I2C_CH_STATUS_FLAG_ACK_RECEIVED);
 651:C:/c_root/electronics/DAVE_work_2019/pocket-nim/Dave/Generated/I2C_MASTER\i2c_master.h ****  *      // write to address 0
 652:C:/c_root/electronics/DAVE_work_2019/pocket-nim/Dave/Generated/I2C_MASTER\i2c_master.h ****  *      I2C_MASTER_TransmitByte(&I2C_MASTER_0, 0x00);
 653:C:/c_root/electronics/DAVE_work_2019/pocket-nim/Dave/Generated/I2C_MASTER\i2c_master.h ****  *	    while(I2C_MASTER_GetFlagStatus(&I2C_MASTER_0, XMC_I2C_CH_STATUS_FLAG_ACK_RECEIVED) == 0U)
 654:C:/c_root/electronics/DAVE_work_2019/pocket-nim/Dave/Generated/I2C_MASTER\i2c_master.h ****  *	    {
 655:C:/c_root/electronics/DAVE_work_2019/pocket-nim/Dave/Generated/I2C_MASTER\i2c_master.h ****  *	      // wait for ACK
 656:C:/c_root/electronics/DAVE_work_2019/pocket-nim/Dave/Generated/I2C_MASTER\i2c_master.h ****  *	    }
 657:C:/c_root/electronics/DAVE_work_2019/pocket-nim/Dave/Generated/I2C_MASTER\i2c_master.h ****  *      I2C_MASTER_ClearFlag(&I2C_MASTER_0,XMC_I2C_CH_STATUS_FLAG_ACK_RECEIVED);
 658:C:/c_root/electronics/DAVE_work_2019/pocket-nim/Dave/Generated/I2C_MASTER\i2c_master.h ****  *      // trigger the DMA
 659:C:/c_root/electronics/DAVE_work_2019/pocket-nim/Dave/Generated/I2C_MASTER\i2c_master.h ****  *      I2C_MASTER_StartTransmitDMA(&I2C_MASTER_0, sizeof(Send_Data), Send_Data);
 660:C:/c_root/electronics/DAVE_work_2019/pocket-nim/Dave/Generated/I2C_MASTER\i2c_master.h ****  *      while(I2C_MASTER_IsTxBusy(&I2C_MASTER_0));
 661:C:/c_root/electronics/DAVE_work_2019/pocket-nim/Dave/Generated/I2C_MASTER\i2c_master.h ****  *    }
 662:C:/c_root/electronics/DAVE_work_2019/pocket-nim/Dave/Generated/I2C_MASTER\i2c_master.h ****  *    else
 663:C:/c_root/electronics/DAVE_work_2019/pocket-nim/Dave/Generated/I2C_MASTER\i2c_master.h ****  *    {
 664:C:/c_root/electronics/DAVE_work_2019/pocket-nim/Dave/Generated/I2C_MASTER\i2c_master.h ****  *      XMC_DEBUG("main: Application initialization failed");
 665:C:/c_root/electronics/DAVE_work_2019/pocket-nim/Dave/Generated/I2C_MASTER\i2c_master.h ****  *      while(1U)
 666:C:/c_root/electronics/DAVE_work_2019/pocket-nim/Dave/Generated/I2C_MASTER\i2c_master.h ****  *      {
 667:C:/c_root/electronics/DAVE_work_2019/pocket-nim/Dave/Generated/I2C_MASTER\i2c_master.h ****  *      }
 668:C:/c_root/electronics/DAVE_work_2019/pocket-nim/Dave/Generated/I2C_MASTER\i2c_master.h ****  *    }
 669:C:/c_root/electronics/DAVE_work_2019/pocket-nim/Dave/Generated/I2C_MASTER\i2c_master.h ****  *    return 1U;
 670:C:/c_root/electronics/DAVE_work_2019/pocket-nim/Dave/Generated/I2C_MASTER\i2c_master.h ****  * }
 671:C:/c_root/electronics/DAVE_work_2019/pocket-nim/Dave/Generated/I2C_MASTER\i2c_master.h ****  * @endcode
 672:C:/c_root/electronics/DAVE_work_2019/pocket-nim/Dave/Generated/I2C_MASTER\i2c_master.h ****  *
 673:C:/c_root/electronics/DAVE_work_2019/pocket-nim/Dave/Generated/I2C_MASTER\i2c_master.h ****  */
 674:C:/c_root/electronics/DAVE_work_2019/pocket-nim/Dave/Generated/I2C_MASTER\i2c_master.h **** I2C_MASTER_STATUS_t I2C_MASTER_StartTransmitDMA(const I2C_MASTER_t *const handle, uint32_t block_si
 675:C:/c_root/electronics/DAVE_work_2019/pocket-nim/Dave/Generated/I2C_MASTER\i2c_master.h **** #endif
 676:C:/c_root/electronics/DAVE_work_2019/pocket-nim/Dave/Generated/I2C_MASTER\i2c_master.h **** 
 677:C:/c_root/electronics/DAVE_work_2019/pocket-nim/Dave/Generated/I2C_MASTER\i2c_master.h **** #if (I2C_MASTER_DMA_RX_ENABLED == 1U)
 678:C:/c_root/electronics/DAVE_work_2019/pocket-nim/Dave/Generated/I2C_MASTER\i2c_master.h **** /**
 679:C:/c_root/electronics/DAVE_work_2019/pocket-nim/Dave/Generated/I2C_MASTER\i2c_master.h ****  * @brief Registers a request for receiving data over I2C_MASTER channel using DMA.
 680:C:/c_root/electronics/DAVE_work_2019/pocket-nim/Dave/Generated/I2C_MASTER\i2c_master.h ****  *
 681:C:/c_root/electronics/DAVE_work_2019/pocket-nim/Dave/Generated/I2C_MASTER\i2c_master.h ****  *
 682:C:/c_root/electronics/DAVE_work_2019/pocket-nim/Dave/Generated/I2C_MASTER\i2c_master.h ****  * @param  handle  Pointer to I2C_MASTER_t handle structure
 683:C:/c_root/electronics/DAVE_work_2019/pocket-nim/Dave/Generated/I2C_MASTER\i2c_master.h ****  * @param block_size  size of the block
 684:C:/c_root/electronics/DAVE_work_2019/pocket-nim/Dave/Generated/I2C_MASTER\i2c_master.h ****  * @param  addr  address \n
 685:C:/c_root/electronics/DAVE_work_2019/pocket-nim/Dave/Generated/I2C_MASTER\i2c_master.h ****  * \b Range: minimum= 1, maximum= 4095.
 686:C:/c_root/electronics/DAVE_work_2019/pocket-nim/Dave/Generated/I2C_MASTER\i2c_master.h ****  *
 687:C:/c_root/electronics/DAVE_work_2019/pocket-nim/Dave/Generated/I2C_MASTER\i2c_master.h ****  * @return  I2C_MASTER_STATUS_t: Status for receive request.\n
 688:C:/c_root/electronics/DAVE_work_2019/pocket-nim/Dave/Generated/I2C_MASTER\i2c_master.h ****  *                        @ref I2C_MASTER_STATUS_SUCCESS if the request is accepted.\n
 689:C:/c_root/electronics/DAVE_work_2019/pocket-nim/Dave/Generated/I2C_MASTER\i2c_master.h ****  *                        @ref I2C_MASTER_STATUS_BUSY if a reception is in progress.\n
 690:C:/c_root/electronics/DAVE_work_2019/pocket-nim/Dave/Generated/I2C_MASTER\i2c_master.h ****  *
 691:C:/c_root/electronics/DAVE_work_2019/pocket-nim/Dave/Generated/I2C_MASTER\i2c_master.h ****  * \par<b>Description:</b><br>
 692:C:/c_root/electronics/DAVE_work_2019/pocket-nim/Dave/Generated/I2C_MASTER\i2c_master.h ****  * Data will be received asynchronously. When the requested number of data bytes are received, opti
 693:C:/c_root/electronics/DAVE_work_2019/pocket-nim/Dave/Generated/I2C_MASTER\i2c_master.h ****  * configured callback function will be executed.
 694:C:/c_root/electronics/DAVE_work_2019/pocket-nim/Dave/Generated/I2C_MASTER\i2c_master.h ****  * This function only registers a request to receive a number of data bytes from a USIC channel.
 695:C:/c_root/electronics/DAVE_work_2019/pocket-nim/Dave/Generated/I2C_MASTER\i2c_master.h ****  * When all the requested number of data bytes are received, the configured callback function will 
 696:C:/c_root/electronics/DAVE_work_2019/pocket-nim/Dave/Generated/I2C_MASTER\i2c_master.h ****  * If a callback function is not configured, the user has to poll for the value of the variable, \a
 697:C:/c_root/electronics/DAVE_work_2019/pocket-nim/Dave/Generated/I2C_MASTER\i2c_master.h ****  * handle->runtime->rx_busy to be false. The value is updated to \a false when all the requested nu
 698:C:/c_root/electronics/DAVE_work_2019/pocket-nim/Dave/Generated/I2C_MASTER\i2c_master.h ****  * are received.
 699:C:/c_root/electronics/DAVE_work_2019/pocket-nim/Dave/Generated/I2C_MASTER\i2c_master.h ****  * A maximum of 4095 bytes can be received in one API call. This limit is because of the DMA single
 700:C:/c_root/electronics/DAVE_work_2019/pocket-nim/Dave/Generated/I2C_MASTER\i2c_master.h ****  *
 701:C:/c_root/electronics/DAVE_work_2019/pocket-nim/Dave/Generated/I2C_MASTER\i2c_master.h ****  * \par<b>NOTE: </b><br>: I2C_MASTER_StartReceiveDMA API can be used only in DMA mode
 702:C:/c_root/electronics/DAVE_work_2019/pocket-nim/Dave/Generated/I2C_MASTER\i2c_master.h ****  * Receive should be configured as "DMA" mode in advanced settings tab \n
 703:C:/c_root/electronics/DAVE_work_2019/pocket-nim/Dave/Generated/I2C_MASTER\i2c_master.h ****  * Address(addr) should reserve an additional bit at the LSB for read/write indication. For example
 704:C:/c_root/electronics/DAVE_work_2019/pocket-nim/Dave/Generated/I2C_MASTER\i2c_master.h ****  * be provided as 0x0a. If the address is 10-bit, only most significant bits with the 10-bit identi
 705:C:/c_root/electronics/DAVE_work_2019/pocket-nim/Dave/Generated/I2C_MASTER\i2c_master.h ****  * For example, if the 10-bit address is 0x305, the address should be provided as 0xf6(prepend with
 706:C:/c_root/electronics/DAVE_work_2019/pocket-nim/Dave/Generated/I2C_MASTER\i2c_master.h ****  * followed by 1-bit field for read/write).<br>
 707:C:/c_root/electronics/DAVE_work_2019/pocket-nim/Dave/Generated/I2C_MASTER\i2c_master.h ****  *
 708:C:/c_root/electronics/DAVE_work_2019/pocket-nim/Dave/Generated/I2C_MASTER\i2c_master.h ****  * Example Usage:
 709:C:/c_root/electronics/DAVE_work_2019/pocket-nim/Dave/Generated/I2C_MASTER\i2c_master.h ****  * @code
 710:C:/c_root/electronics/DAVE_work_2019/pocket-nim/Dave/Generated/I2C_MASTER\i2c_master.h ****  *
 711:C:/c_root/electronics/DAVE_work_2019/pocket-nim/Dave/Generated/I2C_MASTER\i2c_master.h ****  *  #include <DAVE.h>         //Declarations from DAVE Code Generation (includes SFR declaration)
 712:C:/c_root/electronics/DAVE_work_2019/pocket-nim/Dave/Generated/I2C_MASTER\i2c_master.h ****  *  #define SLAVE_ADDRESS 0xA0
 713:C:/c_root/electronics/DAVE_work_2019/pocket-nim/Dave/Generated/I2C_MASTER\i2c_master.h ****  *  //Pre condition:
 714:C:/c_root/electronics/DAVE_work_2019/pocket-nim/Dave/Generated/I2C_MASTER\i2c_master.h ****  *  //Transmit mode and receive mode should be configured to "DMA" in advanced settings tab
 715:C:/c_root/electronics/DAVE_work_2019/pocket-nim/Dave/Generated/I2C_MASTER\i2c_master.h ****  *
 716:C:/c_root/electronics/DAVE_work_2019/pocket-nim/Dave/Generated/I2C_MASTER\i2c_master.h ****  *  uint8_t ReadData[256];
 717:C:/c_root/electronics/DAVE_work_2019/pocket-nim/Dave/Generated/I2C_MASTER\i2c_master.h ****  *  int main(void)
 718:C:/c_root/electronics/DAVE_work_2019/pocket-nim/Dave/Generated/I2C_MASTER\i2c_master.h ****  *  {
 719:C:/c_root/electronics/DAVE_work_2019/pocket-nim/Dave/Generated/I2C_MASTER\i2c_master.h ****  *    DAVE_STATUS_t init_status;
 720:C:/c_root/electronics/DAVE_work_2019/pocket-nim/Dave/Generated/I2C_MASTER\i2c_master.h ****  *
 721:C:/c_root/electronics/DAVE_work_2019/pocket-nim/Dave/Generated/I2C_MASTER\i2c_master.h ****  *    init_status = DAVE_Init();
 722:C:/c_root/electronics/DAVE_work_2019/pocket-nim/Dave/Generated/I2C_MASTER\i2c_master.h ****  *    if(init_status == DAVE_STATUS_SUCCESS)
 723:C:/c_root/electronics/DAVE_work_2019/pocket-nim/Dave/Generated/I2C_MASTER\i2c_master.h ****  *    {
 724:C:/c_root/electronics/DAVE_work_2019/pocket-nim/Dave/Generated/I2C_MASTER\i2c_master.h ****  *      I2C_MASTER_SendStart(&I2C_MASTER_0, SLAVE_ADDRESS, XMC_I2C_CH_CMD_WRITE);
 725:C:/c_root/electronics/DAVE_work_2019/pocket-nim/Dave/Generated/I2C_MASTER\i2c_master.h ****  *	    while(I2C_MASTER_GetFlagStatus(&I2C_MASTER_0, XMC_I2C_CH_STATUS_FLAG_ACK_RECEIVED) == 0U)
 726:C:/c_root/electronics/DAVE_work_2019/pocket-nim/Dave/Generated/I2C_MASTER\i2c_master.h ****  *	    {
 727:C:/c_root/electronics/DAVE_work_2019/pocket-nim/Dave/Generated/I2C_MASTER\i2c_master.h ****  *	      // wait for ACK
 728:C:/c_root/electronics/DAVE_work_2019/pocket-nim/Dave/Generated/I2C_MASTER\i2c_master.h ****  *	    }
 729:C:/c_root/electronics/DAVE_work_2019/pocket-nim/Dave/Generated/I2C_MASTER\i2c_master.h ****  *      I2C_MASTER_ClearFlag(&I2C_MASTER_0,XMC_I2C_CH_STATUS_FLAG_ACK_RECEIVED);
 730:C:/c_root/electronics/DAVE_work_2019/pocket-nim/Dave/Generated/I2C_MASTER\i2c_master.h ****  *      // write to address 0
 731:C:/c_root/electronics/DAVE_work_2019/pocket-nim/Dave/Generated/I2C_MASTER\i2c_master.h ****  *      I2C_MASTER_TransmitByte(&I2C_MASTER_0, 0x00);
 732:C:/c_root/electronics/DAVE_work_2019/pocket-nim/Dave/Generated/I2C_MASTER\i2c_master.h ****  *	    while(I2C_MASTER_GetFlagStatus(&I2C_MASTER_0, XMC_I2C_CH_STATUS_FLAG_ACK_RECEIVED) == 0U)
 733:C:/c_root/electronics/DAVE_work_2019/pocket-nim/Dave/Generated/I2C_MASTER\i2c_master.h ****  *	    {
 734:C:/c_root/electronics/DAVE_work_2019/pocket-nim/Dave/Generated/I2C_MASTER\i2c_master.h ****  *	      // wait for ACK
 735:C:/c_root/electronics/DAVE_work_2019/pocket-nim/Dave/Generated/I2C_MASTER\i2c_master.h ****  *	    }
 736:C:/c_root/electronics/DAVE_work_2019/pocket-nim/Dave/Generated/I2C_MASTER\i2c_master.h ****  *      I2C_MASTER_ClearFlag(&I2C_MASTER_0,XMC_I2C_CH_STATUS_FLAG_ACK_RECEIVED);
 737:C:/c_root/electronics/DAVE_work_2019/pocket-nim/Dave/Generated/I2C_MASTER\i2c_master.h ****  *      I2C_MASTER_SendRepeatedStart(&I2C_MASTER_0, SLAVE_ADDRESS, XMC_I2C_CH_CMD_READ);
 738:C:/c_root/electronics/DAVE_work_2019/pocket-nim/Dave/Generated/I2C_MASTER\i2c_master.h ****  *	    while(I2C_MASTER_GetFlagStatus(&I2C_MASTER_0, XMC_I2C_CH_STATUS_FLAG_ACK_RECEIVED) == 0U)
 739:C:/c_root/electronics/DAVE_work_2019/pocket-nim/Dave/Generated/I2C_MASTER\i2c_master.h ****  *	    {
 740:C:/c_root/electronics/DAVE_work_2019/pocket-nim/Dave/Generated/I2C_MASTER\i2c_master.h ****  *	      // wait for ACK
 741:C:/c_root/electronics/DAVE_work_2019/pocket-nim/Dave/Generated/I2C_MASTER\i2c_master.h ****  *	    }
 742:C:/c_root/electronics/DAVE_work_2019/pocket-nim/Dave/Generated/I2C_MASTER\i2c_master.h ****  *      I2C_MASTER_ClearFlag(&I2C_MASTER_0,XMC_I2C_CH_STATUS_FLAG_ACK_RECEIVED);
 743:C:/c_root/electronics/DAVE_work_2019/pocket-nim/Dave/Generated/I2C_MASTER\i2c_master.h ****  
 744:C:/c_root/electronics/DAVE_work_2019/pocket-nim/Dave/Generated/I2C_MASTER\i2c_master.h ****  *      I2C_MASTER_StartReceiveDMA(&I2C_MASTER_0, 200, ReadData);
 745:C:/c_root/electronics/DAVE_work_2019/pocket-nim/Dave/Generated/I2C_MASTER\i2c_master.h ****  *      while(I2C_MASTER_IsRxBusy(&I2C_MASTER_0));
 746:C:/c_root/electronics/DAVE_work_2019/pocket-nim/Dave/Generated/I2C_MASTER\i2c_master.h ****  *    }
 747:C:/c_root/electronics/DAVE_work_2019/pocket-nim/Dave/Generated/I2C_MASTER\i2c_master.h ****  *    else
 748:C:/c_root/electronics/DAVE_work_2019/pocket-nim/Dave/Generated/I2C_MASTER\i2c_master.h ****  *    {
 749:C:/c_root/electronics/DAVE_work_2019/pocket-nim/Dave/Generated/I2C_MASTER\i2c_master.h ****  *      XMC_DEBUG("main: Application initialization failed");
 750:C:/c_root/electronics/DAVE_work_2019/pocket-nim/Dave/Generated/I2C_MASTER\i2c_master.h ****  *      while(1U)
 751:C:/c_root/electronics/DAVE_work_2019/pocket-nim/Dave/Generated/I2C_MASTER\i2c_master.h ****  *      {
 752:C:/c_root/electronics/DAVE_work_2019/pocket-nim/Dave/Generated/I2C_MASTER\i2c_master.h ****  *      }
 753:C:/c_root/electronics/DAVE_work_2019/pocket-nim/Dave/Generated/I2C_MASTER\i2c_master.h ****  *    }
 754:C:/c_root/electronics/DAVE_work_2019/pocket-nim/Dave/Generated/I2C_MASTER\i2c_master.h ****  *    return 1U;
 755:C:/c_root/electronics/DAVE_work_2019/pocket-nim/Dave/Generated/I2C_MASTER\i2c_master.h ****  *  }
 756:C:/c_root/electronics/DAVE_work_2019/pocket-nim/Dave/Generated/I2C_MASTER\i2c_master.h ****  *  @endcode
 757:C:/c_root/electronics/DAVE_work_2019/pocket-nim/Dave/Generated/I2C_MASTER\i2c_master.h ****  *
 758:C:/c_root/electronics/DAVE_work_2019/pocket-nim/Dave/Generated/I2C_MASTER\i2c_master.h ****  */
 759:C:/c_root/electronics/DAVE_work_2019/pocket-nim/Dave/Generated/I2C_MASTER\i2c_master.h **** I2C_MASTER_STATUS_t I2C_MASTER_StartReceiveDMA(const I2C_MASTER_t *const handle, uint32_t block_siz
 760:C:/c_root/electronics/DAVE_work_2019/pocket-nim/Dave/Generated/I2C_MASTER\i2c_master.h **** #endif
 761:C:/c_root/electronics/DAVE_work_2019/pocket-nim/Dave/Generated/I2C_MASTER\i2c_master.h **** 
 762:C:/c_root/electronics/DAVE_work_2019/pocket-nim/Dave/Generated/I2C_MASTER\i2c_master.h **** #if (I2C_MASTER_INTERRUPT_TX_ENABLED == 1U)
 763:C:/c_root/electronics/DAVE_work_2019/pocket-nim/Dave/Generated/I2C_MASTER\i2c_master.h **** /**
 764:C:/c_root/electronics/DAVE_work_2019/pocket-nim/Dave/Generated/I2C_MASTER\i2c_master.h ****  * @brief Registers a request for transmitting data over I2C_MASTER channel.
 765:C:/c_root/electronics/DAVE_work_2019/pocket-nim/Dave/Generated/I2C_MASTER\i2c_master.h ****  *
 766:C:/c_root/electronics/DAVE_work_2019/pocket-nim/Dave/Generated/I2C_MASTER\i2c_master.h ****  * @param  handle  I2C_MASTER APP handle pointer of type @ref I2C_MASTER_t
 767:C:/c_root/electronics/DAVE_work_2019/pocket-nim/Dave/Generated/I2C_MASTER\i2c_master.h ****  * @param  send_start flag to indicate the start condition
 768:C:/c_root/electronics/DAVE_work_2019/pocket-nim/Dave/Generated/I2C_MASTER\i2c_master.h ****  * @param  address slave address
 769:C:/c_root/electronics/DAVE_work_2019/pocket-nim/Dave/Generated/I2C_MASTER\i2c_master.h ****  * @param  data    pointer to buffer
 770:C:/c_root/electronics/DAVE_work_2019/pocket-nim/Dave/Generated/I2C_MASTER\i2c_master.h ****  * @param  size    number of bytes
 771:C:/c_root/electronics/DAVE_work_2019/pocket-nim/Dave/Generated/I2C_MASTER\i2c_master.h ****  * @param  send_stop flag to indicate the stop condition\n
 772:C:/c_root/electronics/DAVE_work_2019/pocket-nim/Dave/Generated/I2C_MASTER\i2c_master.h ****  * \b Range: minimum= 1, maximum= maximum supported by uint32_t.
 773:C:/c_root/electronics/DAVE_work_2019/pocket-nim/Dave/Generated/I2C_MASTER\i2c_master.h ****  *
 774:C:/c_root/electronics/DAVE_work_2019/pocket-nim/Dave/Generated/I2C_MASTER\i2c_master.h ****  * @return  I2C_MASTER_STATUS_t: Status of transmit request.\n
 775:C:/c_root/electronics/DAVE_work_2019/pocket-nim/Dave/Generated/I2C_MASTER\i2c_master.h ****  *                        @ref I2C_MASTER_STATUS_SUCCESS if the request is accepted.\n
 776:C:/c_root/electronics/DAVE_work_2019/pocket-nim/Dave/Generated/I2C_MASTER\i2c_master.h ****  *                        @ref I2C_MASTER_STATUS_BUSY if a transmission is in progress.\n
 777:C:/c_root/electronics/DAVE_work_2019/pocket-nim/Dave/Generated/I2C_MASTER\i2c_master.h ****  *
 778:C:/c_root/electronics/DAVE_work_2019/pocket-nim/Dave/Generated/I2C_MASTER\i2c_master.h ****  * <i>Imp Note:</i> Return value should be validated by user to ensure that the
 779:C:/c_root/electronics/DAVE_work_2019/pocket-nim/Dave/Generated/I2C_MASTER\i2c_master.h ****  * request is registered.
 780:C:/c_root/electronics/DAVE_work_2019/pocket-nim/Dave/Generated/I2C_MASTER\i2c_master.h ****  *
 781:C:/c_root/electronics/DAVE_work_2019/pocket-nim/Dave/Generated/I2C_MASTER\i2c_master.h ****  * \par<b>Description:</b><br>
 782:C:/c_root/electronics/DAVE_work_2019/pocket-nim/Dave/Generated/I2C_MASTER\i2c_master.h ****  * The data transmission is accomplished using transmit interrupt. User can configure a callback fu
 783:C:/c_root/electronics/DAVE_work_2019/pocket-nim/Dave/Generated/I2C_MASTER\i2c_master.h ****  * When the data is fully transmitted, the callback function will be executed. If transmit FIFO is 
 784:C:/c_root/electronics/DAVE_work_2019/pocket-nim/Dave/Generated/I2C_MASTER\i2c_master.h ****  * the trigger limit is set to 1. So the transmit interrupt will be generated when all the data in 
 785:C:/c_root/electronics/DAVE_work_2019/pocket-nim/Dave/Generated/I2C_MASTER\i2c_master.h ****  * from FIFO. The function uses APP handle's runtime structure to store the data pointer, count, da
 786:C:/c_root/electronics/DAVE_work_2019/pocket-nim/Dave/Generated/I2C_MASTER\i2c_master.h ****  * status of transmission. This function only registers a data transmission request if there is no 
 787:C:/c_root/electronics/DAVE_work_2019/pocket-nim/Dave/Generated/I2C_MASTER\i2c_master.h ****  * in progress.
 788:C:/c_root/electronics/DAVE_work_2019/pocket-nim/Dave/Generated/I2C_MASTER\i2c_master.h ****  * Actual data transmission happens in the transmit interrupt service routine. A trigger is generat
 789:C:/c_root/electronics/DAVE_work_2019/pocket-nim/Dave/Generated/I2C_MASTER\i2c_master.h ****  * interrupt to start loading the data. If transmit FIFO is configured, the data is filled into the
 790:C:/c_root/electronics/DAVE_work_2019/pocket-nim/Dave/Generated/I2C_MASTER\i2c_master.h ****  * Transmit interrupt will be generated next time when the transmit FIFO is empty. At this point of
 791:C:/c_root/electronics/DAVE_work_2019/pocket-nim/Dave/Generated/I2C_MASTER\i2c_master.h ****  * some more data to be transmitted, it is loaded to the FIFO again. When FIFO is not enabled, data
 792:C:/c_root/electronics/DAVE_work_2019/pocket-nim/Dave/Generated/I2C_MASTER\i2c_master.h ****  * byte at a time. On transmission of each byte an interrupt is generated and the next byte is tran
 793:C:/c_root/electronics/DAVE_work_2019/pocket-nim/Dave/Generated/I2C_MASTER\i2c_master.h ****  * interrupt service routine. Callback function is executed when all the data bytes are transmitted
 794:C:/c_root/electronics/DAVE_work_2019/pocket-nim/Dave/Generated/I2C_MASTER\i2c_master.h ****  * If a callback function is not configured, user has to poll for the value of \a tx_busy flag of t
 795:C:/c_root/electronics/DAVE_work_2019/pocket-nim/Dave/Generated/I2C_MASTER\i2c_master.h ****  * structure( \a handle->runtime->tx_busy ) to check for the completion of data transmission.<br>
 796:C:/c_root/electronics/DAVE_work_2019/pocket-nim/Dave/Generated/I2C_MASTER\i2c_master.h ****  * \par<b>NOTE: </b><br>: I2C_MASTER_StartTransmitIRQ API can be used only in Interrupt mode.
 797:C:/c_root/electronics/DAVE_work_2019/pocket-nim/Dave/Generated/I2C_MASTER\i2c_master.h ****  * Transmit should be configured as "Interrupt" mode in advanced settings tab.\n
 798:C:/c_root/electronics/DAVE_work_2019/pocket-nim/Dave/Generated/I2C_MASTER\i2c_master.h ****  * Address(address) should reserve an additional bit at the LSB for read/write indication. For exam
 799:C:/c_root/electronics/DAVE_work_2019/pocket-nim/Dave/Generated/I2C_MASTER\i2c_master.h ****  * be provided as 0x0a. If the address is 10-bit, only most significant bits with the 10-bit identi
 800:C:/c_root/electronics/DAVE_work_2019/pocket-nim/Dave/Generated/I2C_MASTER\i2c_master.h ****  * For example, if the 10-bit address is 0x305, the address should be provided as 0xf6(prepend with
 801:C:/c_root/electronics/DAVE_work_2019/pocket-nim/Dave/Generated/I2C_MASTER\i2c_master.h ****  * followed by 1-bit field for read/write).
 802:C:/c_root/electronics/DAVE_work_2019/pocket-nim/Dave/Generated/I2C_MASTER\i2c_master.h ****  *
 803:C:/c_root/electronics/DAVE_work_2019/pocket-nim/Dave/Generated/I2C_MASTER\i2c_master.h ****  * @code
 804:C:/c_root/electronics/DAVE_work_2019/pocket-nim/Dave/Generated/I2C_MASTER\i2c_master.h ****  *
 805:C:/c_root/electronics/DAVE_work_2019/pocket-nim/Dave/Generated/I2C_MASTER\i2c_master.h ****  *  #include <DAVE.h>
 806:C:/c_root/electronics/DAVE_work_2019/pocket-nim/Dave/Generated/I2C_MASTER\i2c_master.h ****  *  #define SLAVE_ADDRESS 0xA0
 807:C:/c_root/electronics/DAVE_work_2019/pocket-nim/Dave/Generated/I2C_MASTER\i2c_master.h ****  *  uint8_t tx_buffer[64] = {0x01,0x02,0x03,0x04,0x05};
 808:C:/c_root/electronics/DAVE_work_2019/pocket-nim/Dave/Generated/I2C_MASTER\i2c_master.h ****  *  uint8_t mem_address[2];
 809:C:/c_root/electronics/DAVE_work_2019/pocket-nim/Dave/Generated/I2C_MASTER\i2c_master.h ****  *
 810:C:/c_root/electronics/DAVE_work_2019/pocket-nim/Dave/Generated/I2C_MASTER\i2c_master.h ****  *  int main(void)
 811:C:/c_root/electronics/DAVE_work_2019/pocket-nim/Dave/Generated/I2C_MASTER\i2c_master.h ****  *  {
 812:C:/c_root/electronics/DAVE_work_2019/pocket-nim/Dave/Generated/I2C_MASTER\i2c_master.h ****  *    DAVE_STATUS_t init_status;
 813:C:/c_root/electronics/DAVE_work_2019/pocket-nim/Dave/Generated/I2C_MASTER\i2c_master.h ****  *    init_status = DAVE_Init();
 814:C:/c_root/electronics/DAVE_work_2019/pocket-nim/Dave/Generated/I2C_MASTER\i2c_master.h ****  *    if(init_status == DAVE_STATUS_SUCCESS)
 815:C:/c_root/electronics/DAVE_work_2019/pocket-nim/Dave/Generated/I2C_MASTER\i2c_master.h ****  *    {
 816:C:/c_root/electronics/DAVE_work_2019/pocket-nim/Dave/Generated/I2C_MASTER\i2c_master.h ****  *      mem_address[0] = 0x00;//memory which need to be read from slave
 817:C:/c_root/electronics/DAVE_work_2019/pocket-nim/Dave/Generated/I2C_MASTER\i2c_master.h ****  *      //Write data to IO EXPANDER
 818:C:/c_root/electronics/DAVE_work_2019/pocket-nim/Dave/Generated/I2C_MASTER\i2c_master.h ****  *      I2C_MASTER_StartTransmitIRQ(&I2C_MASTER_0,true,SLAVE_ADDRESS,mem_address,1,false);
 819:C:/c_root/electronics/DAVE_work_2019/pocket-nim/Dave/Generated/I2C_MASTER\i2c_master.h ****  *      while(I2C_MASTER_IsTxBusy(&I2C_MASTER_0));
 820:C:/c_root/electronics/DAVE_work_2019/pocket-nim/Dave/Generated/I2C_MASTER\i2c_master.h ****  *
 821:C:/c_root/electronics/DAVE_work_2019/pocket-nim/Dave/Generated/I2C_MASTER\i2c_master.h ****  *      I2C_MASTER_StartTransmitIRQ(&I2C_MASTER_0,false,SLAVE_ADDRESS,tx_buffer,64,true);
 822:C:/c_root/electronics/DAVE_work_2019/pocket-nim/Dave/Generated/I2C_MASTER\i2c_master.h ****  *      while(I2C_MASTER_IsTxBusy(&I2C_MASTER_0));
 823:C:/c_root/electronics/DAVE_work_2019/pocket-nim/Dave/Generated/I2C_MASTER\i2c_master.h ****  *    }
 824:C:/c_root/electronics/DAVE_work_2019/pocket-nim/Dave/Generated/I2C_MASTER\i2c_master.h ****  *    while(1)
 825:C:/c_root/electronics/DAVE_work_2019/pocket-nim/Dave/Generated/I2C_MASTER\i2c_master.h ****  *    { }
 826:C:/c_root/electronics/DAVE_work_2019/pocket-nim/Dave/Generated/I2C_MASTER\i2c_master.h **** 
 827:C:/c_root/electronics/DAVE_work_2019/pocket-nim/Dave/Generated/I2C_MASTER\i2c_master.h ****  *    return 0;
 828:C:/c_root/electronics/DAVE_work_2019/pocket-nim/Dave/Generated/I2C_MASTER\i2c_master.h ****  *  }
 829:C:/c_root/electronics/DAVE_work_2019/pocket-nim/Dave/Generated/I2C_MASTER\i2c_master.h ****  *
 830:C:/c_root/electronics/DAVE_work_2019/pocket-nim/Dave/Generated/I2C_MASTER\i2c_master.h ****  * @endcode<BR> </p>
 831:C:/c_root/electronics/DAVE_work_2019/pocket-nim/Dave/Generated/I2C_MASTER\i2c_master.h ****  *
 832:C:/c_root/electronics/DAVE_work_2019/pocket-nim/Dave/Generated/I2C_MASTER\i2c_master.h ****  */
 833:C:/c_root/electronics/DAVE_work_2019/pocket-nim/Dave/Generated/I2C_MASTER\i2c_master.h **** 
 834:C:/c_root/electronics/DAVE_work_2019/pocket-nim/Dave/Generated/I2C_MASTER\i2c_master.h **** I2C_MASTER_STATUS_t I2C_MASTER_StartTransmitIRQ(I2C_MASTER_t *handle, bool send_start, const uint32
 835:C:/c_root/electronics/DAVE_work_2019/pocket-nim/Dave/Generated/I2C_MASTER\i2c_master.h ****                                                 uint8_t *data, const uint32_t size, bool send_stop)
 836:C:/c_root/electronics/DAVE_work_2019/pocket-nim/Dave/Generated/I2C_MASTER\i2c_master.h **** #endif
 837:C:/c_root/electronics/DAVE_work_2019/pocket-nim/Dave/Generated/I2C_MASTER\i2c_master.h **** #if (I2C_MASTER_INTERRUPT_RX_ENABLED == 1U)
 838:C:/c_root/electronics/DAVE_work_2019/pocket-nim/Dave/Generated/I2C_MASTER\i2c_master.h **** /**
 839:C:/c_root/electronics/DAVE_work_2019/pocket-nim/Dave/Generated/I2C_MASTER\i2c_master.h ****  * @brief Registers a request for receiving data over I2C_MASTER channel.
 840:C:/c_root/electronics/DAVE_work_2019/pocket-nim/Dave/Generated/I2C_MASTER\i2c_master.h ****  *
 841:C:/c_root/electronics/DAVE_work_2019/pocket-nim/Dave/Generated/I2C_MASTER\i2c_master.h ****  *
 842:C:/c_root/electronics/DAVE_work_2019/pocket-nim/Dave/Generated/I2C_MASTER\i2c_master.h ****  * @param  handle  Pointer to I2C_MASTER_t handle structure
 843:C:/c_root/electronics/DAVE_work_2019/pocket-nim/Dave/Generated/I2C_MASTER\i2c_master.h ****  * @param  send_start flag to indicate the start condition
 844:C:/c_root/electronics/DAVE_work_2019/pocket-nim/Dave/Generated/I2C_MASTER\i2c_master.h ****  * @param  address slave address
 845:C:/c_root/electronics/DAVE_work_2019/pocket-nim/Dave/Generated/I2C_MASTER\i2c_master.h ****  * @param  data    pointer to buffer
 846:C:/c_root/electronics/DAVE_work_2019/pocket-nim/Dave/Generated/I2C_MASTER\i2c_master.h ****  * @param  count    number of bytes
 847:C:/c_root/electronics/DAVE_work_2019/pocket-nim/Dave/Generated/I2C_MASTER\i2c_master.h ****  * @param  send_stop flag to indicate the stop condition
 848:C:/c_root/electronics/DAVE_work_2019/pocket-nim/Dave/Generated/I2C_MASTER\i2c_master.h ****  * @param  send_nack flag to indicate the nack condition\n
 849:C:/c_root/electronics/DAVE_work_2019/pocket-nim/Dave/Generated/I2C_MASTER\i2c_master.h ****  * \b Range: minimum= 1, maximum= maximum value supported by type uint32_t.
 850:C:/c_root/electronics/DAVE_work_2019/pocket-nim/Dave/Generated/I2C_MASTER\i2c_master.h ****  *
 851:C:/c_root/electronics/DAVE_work_2019/pocket-nim/Dave/Generated/I2C_MASTER\i2c_master.h ****  * @return  I2C_MASTER_STATUS_t: Status for receive request.\n
 852:C:/c_root/electronics/DAVE_work_2019/pocket-nim/Dave/Generated/I2C_MASTER\i2c_master.h ****  *                        @ref I2C_MASTER_STATUS_SUCCESS if the request is accepted.\n
 853:C:/c_root/electronics/DAVE_work_2019/pocket-nim/Dave/Generated/I2C_MASTER\i2c_master.h ****  *                        @ref I2C_MASTER_STATUS_BUSY if a reception is in progress.\n
 854:C:/c_root/electronics/DAVE_work_2019/pocket-nim/Dave/Generated/I2C_MASTER\i2c_master.h ****  *
 855:C:/c_root/electronics/DAVE_work_2019/pocket-nim/Dave/Generated/I2C_MASTER\i2c_master.h ****  *
 856:C:/c_root/electronics/DAVE_work_2019/pocket-nim/Dave/Generated/I2C_MASTER\i2c_master.h ****  * \par<b>Description:</b><br>
 857:C:/c_root/electronics/DAVE_work_2019/pocket-nim/Dave/Generated/I2C_MASTER\i2c_master.h ****  * Data will be received asynchronously. When the requested number of data bytes are received, opti
 858:C:/c_root/electronics/DAVE_work_2019/pocket-nim/Dave/Generated/I2C_MASTER\i2c_master.h ****  * configured callback function will be executed. Based on the UI configuration, either standard re
 859:C:/c_root/electronics/DAVE_work_2019/pocket-nim/Dave/Generated/I2C_MASTER\i2c_master.h ****  * receive FIFO is used for data reception. An interrupt is configured for reading received data fr
 860:C:/c_root/electronics/DAVE_work_2019/pocket-nim/Dave/Generated/I2C_MASTER\i2c_master.h ****  * function only registers a request to receive a number of data bytes from a USIC channel. If FIFO
 861:C:/c_root/electronics/DAVE_work_2019/pocket-nim/Dave/Generated/I2C_MASTER\i2c_master.h ****  * reception, the FIFO limit is dynamically configured to optimally utilize the CPU load.  When all
 862:C:/c_root/electronics/DAVE_work_2019/pocket-nim/Dave/Generated/I2C_MASTER\i2c_master.h ****  * of data bytes are received, the configured callback function will be executed. If a callback fun
 863:C:/c_root/electronics/DAVE_work_2019/pocket-nim/Dave/Generated/I2C_MASTER\i2c_master.h ****  * configured, the user has to poll for the value of the variable, \a handle->runtime->rx_busy to b
 864:C:/c_root/electronics/DAVE_work_2019/pocket-nim/Dave/Generated/I2C_MASTER\i2c_master.h ****  * is updated to \a false when all the requested number of data bytes are received.<br>
 865:C:/c_root/electronics/DAVE_work_2019/pocket-nim/Dave/Generated/I2C_MASTER\i2c_master.h ****  * \par<b>NOTE: </b><br>: I2C_MASTER_StartReceiveIRQ API can be used only in Interrupt mode.
 866:C:/c_root/electronics/DAVE_work_2019/pocket-nim/Dave/Generated/I2C_MASTER\i2c_master.h ****  * Receive should be configured as "Interrupt" mode in advanced settings tab.\n
 867:C:/c_root/electronics/DAVE_work_2019/pocket-nim/Dave/Generated/I2C_MASTER\i2c_master.h ****  * Address(address) should reserve an additional bit at the LSB for read/write indication. For exam
 868:C:/c_root/electronics/DAVE_work_2019/pocket-nim/Dave/Generated/I2C_MASTER\i2c_master.h ****  * be provided as 0x0a. If the address is 10-bit, only most significant bits with the 10-bit identi
 869:C:/c_root/electronics/DAVE_work_2019/pocket-nim/Dave/Generated/I2C_MASTER\i2c_master.h ****  * For example, if the 10-bit address is 0x305, the address should be provided as 0xf6(prepend with
 870:C:/c_root/electronics/DAVE_work_2019/pocket-nim/Dave/Generated/I2C_MASTER\i2c_master.h ****  * followed by 1-bit field for read/write).
 871:C:/c_root/electronics/DAVE_work_2019/pocket-nim/Dave/Generated/I2C_MASTER\i2c_master.h ****  *
 872:C:/c_root/electronics/DAVE_work_2019/pocket-nim/Dave/Generated/I2C_MASTER\i2c_master.h ****  * @code
 873:C:/c_root/electronics/DAVE_work_2019/pocket-nim/Dave/Generated/I2C_MASTER\i2c_master.h ****  *
 874:C:/c_root/electronics/DAVE_work_2019/pocket-nim/Dave/Generated/I2C_MASTER\i2c_master.h ****  *  #include <DAVE.h>
 875:C:/c_root/electronics/DAVE_work_2019/pocket-nim/Dave/Generated/I2C_MASTER\i2c_master.h ****  *  #define SLAVE_ADDRESS 0xA0
 876:C:/c_root/electronics/DAVE_work_2019/pocket-nim/Dave/Generated/I2C_MASTER\i2c_master.h ****  *  uint8_t rx_buffer[64];
 877:C:/c_root/electronics/DAVE_work_2019/pocket-nim/Dave/Generated/I2C_MASTER\i2c_master.h ****  *  uint8_t mem_address[2];
 878:C:/c_root/electronics/DAVE_work_2019/pocket-nim/Dave/Generated/I2C_MASTER\i2c_master.h ****  *
 879:C:/c_root/electronics/DAVE_work_2019/pocket-nim/Dave/Generated/I2C_MASTER\i2c_master.h ****  *  int main(void)
 880:C:/c_root/electronics/DAVE_work_2019/pocket-nim/Dave/Generated/I2C_MASTER\i2c_master.h ****  *  {
 881:C:/c_root/electronics/DAVE_work_2019/pocket-nim/Dave/Generated/I2C_MASTER\i2c_master.h ****  *    DAVE_STATUS_t init_status;
 882:C:/c_root/electronics/DAVE_work_2019/pocket-nim/Dave/Generated/I2C_MASTER\i2c_master.h ****  *    init_status = DAVE_Init();
 883:C:/c_root/electronics/DAVE_work_2019/pocket-nim/Dave/Generated/I2C_MASTER\i2c_master.h ****  *    if(init_status == DAVE_STATUS_SUCCESS)
 884:C:/c_root/electronics/DAVE_work_2019/pocket-nim/Dave/Generated/I2C_MASTER\i2c_master.h ****  *    {
 885:C:/c_root/electronics/DAVE_work_2019/pocket-nim/Dave/Generated/I2C_MASTER\i2c_master.h ****  *      mem_address[0] = 0x00;//memory which need to be read from slave
 886:C:/c_root/electronics/DAVE_work_2019/pocket-nim/Dave/Generated/I2C_MASTER\i2c_master.h ****  *     //Write data to IO EXPANDER
 887:C:/c_root/electronics/DAVE_work_2019/pocket-nim/Dave/Generated/I2C_MASTER\i2c_master.h ****  *     I2C_MASTER_StartTransmitIRQ(&I2C_MASTER_0,true,SLAVE_ADDRESS,mem_address,1,false);
 888:C:/c_root/electronics/DAVE_work_2019/pocket-nim/Dave/Generated/I2C_MASTER\i2c_master.h ****  *     while(I2C_MASTER_IsTxBusy(&I2C_MASTER_0));
 889:C:/c_root/electronics/DAVE_work_2019/pocket-nim/Dave/Generated/I2C_MASTER\i2c_master.h ****  *
 890:C:/c_root/electronics/DAVE_work_2019/pocket-nim/Dave/Generated/I2C_MASTER\i2c_master.h ****  *     I2C_MASTER_StartReceiveIRQ(&I2C_MASTER_0,true,SLAVE_ADDRESS,rx_buffer,64,true, true);
 891:C:/c_root/electronics/DAVE_work_2019/pocket-nim/Dave/Generated/I2C_MASTER\i2c_master.h ****  *     while(I2C_MASTER_IsRxBusy(&I2C_MASTER_0));
 892:C:/c_root/electronics/DAVE_work_2019/pocket-nim/Dave/Generated/I2C_MASTER\i2c_master.h ****  *    }
 893:C:/c_root/electronics/DAVE_work_2019/pocket-nim/Dave/Generated/I2C_MASTER\i2c_master.h ****  *    while(1)
 894:C:/c_root/electronics/DAVE_work_2019/pocket-nim/Dave/Generated/I2C_MASTER\i2c_master.h ****  *    { }
 895:C:/c_root/electronics/DAVE_work_2019/pocket-nim/Dave/Generated/I2C_MASTER\i2c_master.h ****  *    return 0;
 896:C:/c_root/electronics/DAVE_work_2019/pocket-nim/Dave/Generated/I2C_MASTER\i2c_master.h ****  *  }
 897:C:/c_root/electronics/DAVE_work_2019/pocket-nim/Dave/Generated/I2C_MASTER\i2c_master.h ****  *
 898:C:/c_root/electronics/DAVE_work_2019/pocket-nim/Dave/Generated/I2C_MASTER\i2c_master.h ****  * @endcode<BR> </p>
 899:C:/c_root/electronics/DAVE_work_2019/pocket-nim/Dave/Generated/I2C_MASTER\i2c_master.h ****  *
 900:C:/c_root/electronics/DAVE_work_2019/pocket-nim/Dave/Generated/I2C_MASTER\i2c_master.h ****  */
 901:C:/c_root/electronics/DAVE_work_2019/pocket-nim/Dave/Generated/I2C_MASTER\i2c_master.h ****  I2C_MASTER_STATUS_t I2C_MASTER_StartReceiveIRQ(I2C_MASTER_t *handle, bool send_start, const uint32
 902:C:/c_root/electronics/DAVE_work_2019/pocket-nim/Dave/Generated/I2C_MASTER\i2c_master.h ****                                                uint8_t * data, const uint32_t count, bool send_stop
 903:C:/c_root/electronics/DAVE_work_2019/pocket-nim/Dave/Generated/I2C_MASTER\i2c_master.h **** #endif
 904:C:/c_root/electronics/DAVE_work_2019/pocket-nim/Dave/Generated/I2C_MASTER\i2c_master.h **** 
 905:C:/c_root/electronics/DAVE_work_2019/pocket-nim/Dave/Generated/I2C_MASTER\i2c_master.h **** 
 906:C:/c_root/electronics/DAVE_work_2019/pocket-nim/Dave/Generated/I2C_MASTER\i2c_master.h **** /**
 907:C:/c_root/electronics/DAVE_work_2019/pocket-nim/Dave/Generated/I2C_MASTER\i2c_master.h ****  * @brief Gets the transmit FIFO event flags.
 908:C:/c_root/electronics/DAVE_work_2019/pocket-nim/Dave/Generated/I2C_MASTER\i2c_master.h ****  *
 909:C:/c_root/electronics/DAVE_work_2019/pocket-nim/Dave/Generated/I2C_MASTER\i2c_master.h ****  * @param  handle I2C_MASTER APP handle pointer of type @ref I2C_MASTER_t
 910:C:/c_root/electronics/DAVE_work_2019/pocket-nim/Dave/Generated/I2C_MASTER\i2c_master.h ****  *
 911:C:/c_root/electronics/DAVE_work_2019/pocket-nim/Dave/Generated/I2C_MASTER\i2c_master.h ****  * @return uint32_t: Status of the STBI and TBERI bits in TRBSR register in
 912:C:/c_root/electronics/DAVE_work_2019/pocket-nim/Dave/Generated/I2C_MASTER\i2c_master.h ****  *                      their bit positions.\n
 913:C:/c_root/electronics/DAVE_work_2019/pocket-nim/Dave/Generated/I2C_MASTER\i2c_master.h ****  *                      \b Range: Use type @ref XMC_USIC_CH_TXFIFO_EVENT_t for the bitmask of event
 914:C:/c_root/electronics/DAVE_work_2019/pocket-nim/Dave/Generated/I2C_MASTER\i2c_master.h ****  *
 915:C:/c_root/electronics/DAVE_work_2019/pocket-nim/Dave/Generated/I2C_MASTER\i2c_master.h ****  * \par<b>Description:</b><br>
 916:C:/c_root/electronics/DAVE_work_2019/pocket-nim/Dave/Generated/I2C_MASTER\i2c_master.h ****  * Function reads the value of TRBSR register. It masks the standard transmit buffer interrupt flag
 917:C:/c_root/electronics/DAVE_work_2019/pocket-nim/Dave/Generated/I2C_MASTER\i2c_master.h ****  * buffer error flag before providing the value.
 918:C:/c_root/electronics/DAVE_work_2019/pocket-nim/Dave/Generated/I2C_MASTER\i2c_master.h ****  * User has to mask the bits of interest before checking the status.
 919:C:/c_root/electronics/DAVE_work_2019/pocket-nim/Dave/Generated/I2C_MASTER\i2c_master.h ****  * \par<b>NOTE: </b><br>: Enable transmit fifo in Advanced settings tab. <br>
 920:C:/c_root/electronics/DAVE_work_2019/pocket-nim/Dave/Generated/I2C_MASTER\i2c_master.h ****  * Example Usage:
 921:C:/c_root/electronics/DAVE_work_2019/pocket-nim/Dave/Generated/I2C_MASTER\i2c_master.h ****  *
 922:C:/c_root/electronics/DAVE_work_2019/pocket-nim/Dave/Generated/I2C_MASTER\i2c_master.h ****  * @code
 923:C:/c_root/electronics/DAVE_work_2019/pocket-nim/Dave/Generated/I2C_MASTER\i2c_master.h ****  *
 924:C:/c_root/electronics/DAVE_work_2019/pocket-nim/Dave/Generated/I2C_MASTER\i2c_master.h ****  *  #include <DAVE.h>         //Declarations from DAVE Code Generation (includes SFR declaration)
 925:C:/c_root/electronics/DAVE_work_2019/pocket-nim/Dave/Generated/I2C_MASTER\i2c_master.h ****  *  #define SLAVE_ADDRESS 0xA0
 926:C:/c_root/electronics/DAVE_work_2019/pocket-nim/Dave/Generated/I2C_MASTER\i2c_master.h ****  *  uint8_t mem_address[2];
 927:C:/c_root/electronics/DAVE_work_2019/pocket-nim/Dave/Generated/I2C_MASTER\i2c_master.h ****  *  int main(void)
 928:C:/c_root/electronics/DAVE_work_2019/pocket-nim/Dave/Generated/I2C_MASTER\i2c_master.h ****  *  {
 929:C:/c_root/electronics/DAVE_work_2019/pocket-nim/Dave/Generated/I2C_MASTER\i2c_master.h ****  *    DAVE_STATUS_t init_status;
 930:C:/c_root/electronics/DAVE_work_2019/pocket-nim/Dave/Generated/I2C_MASTER\i2c_master.h ****  *    init_status = DAVE_Init();
 931:C:/c_root/electronics/DAVE_work_2019/pocket-nim/Dave/Generated/I2C_MASTER\i2c_master.h ****  *    if(init_status == DAVE_STATUS_SUCCESS)
 932:C:/c_root/electronics/DAVE_work_2019/pocket-nim/Dave/Generated/I2C_MASTER\i2c_master.h ****  *    {
 933:C:/c_root/electronics/DAVE_work_2019/pocket-nim/Dave/Generated/I2C_MASTER\i2c_master.h ****  *      mem_address[0] = 0x00;//memory which need to be read from slave
 934:C:/c_root/electronics/DAVE_work_2019/pocket-nim/Dave/Generated/I2C_MASTER\i2c_master.h ****  *      //Configure transmit fifo trigger limit as 10
 935:C:/c_root/electronics/DAVE_work_2019/pocket-nim/Dave/Generated/I2C_MASTER\i2c_master.h ****  *      I2C_MASTER_SetTXFIFOTriggerLimit(&I2C_MASTER_0, 16, 10);
 936:C:/c_root/electronics/DAVE_work_2019/pocket-nim/Dave/Generated/I2C_MASTER\i2c_master.h ****  *      I2C_MASTER_StartTransmitIRQ(&I2C_MASTER_0,true,SLAVE_ADDRESS,mem_address,1,false);
 937:C:/c_root/electronics/DAVE_work_2019/pocket-nim/Dave/Generated/I2C_MASTER\i2c_master.h ****  *      while(I2C_MASTER_IsTxBusy(&I2C_MASTER_0));
 938:C:/c_root/electronics/DAVE_work_2019/pocket-nim/Dave/Generated/I2C_MASTER\i2c_master.h ****  *      I2C_MASTER_StartTransmitIRQ(&I2C_MASTER_0,true,SLAVE_ADDRESS,mem_address,16,false);
 939:C:/c_root/electronics/DAVE_work_2019/pocket-nim/Dave/Generated/I2C_MASTER\i2c_master.h ****  *      //Wait for FIFO transmit standard buffer interrupt to fill it again with remaining data
 940:C:/c_root/electronics/DAVE_work_2019/pocket-nim/Dave/Generated/I2C_MASTER\i2c_master.h ****  *      while((I2C_MASTER_GetTXFIFOStatus(&I2C_MASTER_0) & XMC_USIC_CH_TXFIFO_EVENT_STANDARD) == 0)
 941:C:/c_root/electronics/DAVE_work_2019/pocket-nim/Dave/Generated/I2C_MASTER\i2c_master.h ****  *      I2C_MASTER_ClearTXFIFOStatus(&I2C_MASTER_0, XMC_USIC_CH_TXFIFO_EVENT_STANDARD);
 942:C:/c_root/electronics/DAVE_work_2019/pocket-nim/Dave/Generated/I2C_MASTER\i2c_master.h ****  *      I2C_MASTER_StartTransmitIRQ(&I2C_MASTER_0,true,SLAVE_ADDRESS,mem_address,6,false);
 943:C:/c_root/electronics/DAVE_work_2019/pocket-nim/Dave/Generated/I2C_MASTER\i2c_master.h ****  *    }
 944:C:/c_root/electronics/DAVE_work_2019/pocket-nim/Dave/Generated/I2C_MASTER\i2c_master.h ****  *    else
 945:C:/c_root/electronics/DAVE_work_2019/pocket-nim/Dave/Generated/I2C_MASTER\i2c_master.h ****  *    {
 946:C:/c_root/electronics/DAVE_work_2019/pocket-nim/Dave/Generated/I2C_MASTER\i2c_master.h ****  *      XMC_DEBUG("main: Application initialization failed");
 947:C:/c_root/electronics/DAVE_work_2019/pocket-nim/Dave/Generated/I2C_MASTER\i2c_master.h ****  *      while(1U)
 948:C:/c_root/electronics/DAVE_work_2019/pocket-nim/Dave/Generated/I2C_MASTER\i2c_master.h ****  *      {
 949:C:/c_root/electronics/DAVE_work_2019/pocket-nim/Dave/Generated/I2C_MASTER\i2c_master.h ****  *      }
 950:C:/c_root/electronics/DAVE_work_2019/pocket-nim/Dave/Generated/I2C_MASTER\i2c_master.h ****  *    }
 951:C:/c_root/electronics/DAVE_work_2019/pocket-nim/Dave/Generated/I2C_MASTER\i2c_master.h ****  *    return 1U;
 952:C:/c_root/electronics/DAVE_work_2019/pocket-nim/Dave/Generated/I2C_MASTER\i2c_master.h ****  *  }
 953:C:/c_root/electronics/DAVE_work_2019/pocket-nim/Dave/Generated/I2C_MASTER\i2c_master.h ****  * @endcode
 954:C:/c_root/electronics/DAVE_work_2019/pocket-nim/Dave/Generated/I2C_MASTER\i2c_master.h ****  *
 955:C:/c_root/electronics/DAVE_work_2019/pocket-nim/Dave/Generated/I2C_MASTER\i2c_master.h ****  */
 956:C:/c_root/electronics/DAVE_work_2019/pocket-nim/Dave/Generated/I2C_MASTER\i2c_master.h **** __STATIC_INLINE uint32_t I2C_MASTER_GetTXFIFOStatus(const I2C_MASTER_t* const handle)
 957:C:/c_root/electronics/DAVE_work_2019/pocket-nim/Dave/Generated/I2C_MASTER\i2c_master.h **** {
 958:C:/c_root/electronics/DAVE_work_2019/pocket-nim/Dave/Generated/I2C_MASTER\i2c_master.h ****   XMC_ASSERT("I2C_MASTER_GetTXFIFOStatus: invalid handle", (handle != NULL))
 959:C:/c_root/electronics/DAVE_work_2019/pocket-nim/Dave/Generated/I2C_MASTER\i2c_master.h ****   return XMC_USIC_CH_TXFIFO_GetEvent(handle->channel);
 960:C:/c_root/electronics/DAVE_work_2019/pocket-nim/Dave/Generated/I2C_MASTER\i2c_master.h **** }
 961:C:/c_root/electronics/DAVE_work_2019/pocket-nim/Dave/Generated/I2C_MASTER\i2c_master.h **** 
 962:C:/c_root/electronics/DAVE_work_2019/pocket-nim/Dave/Generated/I2C_MASTER\i2c_master.h **** /**
 963:C:/c_root/electronics/DAVE_work_2019/pocket-nim/Dave/Generated/I2C_MASTER\i2c_master.h ****  * @brief Configures trigger limit for the transmit FIFO.
 964:C:/c_root/electronics/DAVE_work_2019/pocket-nim/Dave/Generated/I2C_MASTER\i2c_master.h ****  *
 965:C:/c_root/electronics/DAVE_work_2019/pocket-nim/Dave/Generated/I2C_MASTER\i2c_master.h ****  * @param  handle I2C_MASTER APP handle pointer of type @ref I2C_MASTER_t
 966:C:/c_root/electronics/DAVE_work_2019/pocket-nim/Dave/Generated/I2C_MASTER\i2c_master.h ****  * @param  size   FIFO size
 967:C:/c_root/electronics/DAVE_work_2019/pocket-nim/Dave/Generated/I2C_MASTER\i2c_master.h ****  * @param  limit Value of transmit FIFO filling level, transition below which the interrupt should 
 968:C:/c_root/electronics/DAVE_work_2019/pocket-nim/Dave/Generated/I2C_MASTER\i2c_master.h ****  *               \bRange: 0 to transmit FIFO size.\n
 969:C:/c_root/electronics/DAVE_work_2019/pocket-nim/Dave/Generated/I2C_MASTER\i2c_master.h ****  *               e.g, If transmit FIFO size is 16, and limit is configured as 8, FIFO standard tran
 970:C:/c_root/electronics/DAVE_work_2019/pocket-nim/Dave/Generated/I2C_MASTER\i2c_master.h ****  *               will be generated when the FIFO filling level drops from 8 to 7.\n
 971:C:/c_root/electronics/DAVE_work_2019/pocket-nim/Dave/Generated/I2C_MASTER\i2c_master.h ****  *
 972:C:/c_root/electronics/DAVE_work_2019/pocket-nim/Dave/Generated/I2C_MASTER\i2c_master.h ****  * @return None\n
 973:C:/c_root/electronics/DAVE_work_2019/pocket-nim/Dave/Generated/I2C_MASTER\i2c_master.h ****  *
 974:C:/c_root/electronics/DAVE_work_2019/pocket-nim/Dave/Generated/I2C_MASTER\i2c_master.h ****  * \par<b>Description:</b><br>
 975:C:/c_root/electronics/DAVE_work_2019/pocket-nim/Dave/Generated/I2C_MASTER\i2c_master.h ****  * Transmit FIFO trigger limit is configured by setting its value in the TBCTR register.
 976:C:/c_root/electronics/DAVE_work_2019/pocket-nim/Dave/Generated/I2C_MASTER\i2c_master.h ****  * Transmit FIFO is configured to generate interrupt when the FIFO filling level drops
 977:C:/c_root/electronics/DAVE_work_2019/pocket-nim/Dave/Generated/I2C_MASTER\i2c_master.h ****  * below the trigger limit.
 978:C:/c_root/electronics/DAVE_work_2019/pocket-nim/Dave/Generated/I2C_MASTER\i2c_master.h ****  *
 979:C:/c_root/electronics/DAVE_work_2019/pocket-nim/Dave/Generated/I2C_MASTER\i2c_master.h ****  * Example Usage:
 980:C:/c_root/electronics/DAVE_work_2019/pocket-nim/Dave/Generated/I2C_MASTER\i2c_master.h ****  * @code
 981:C:/c_root/electronics/DAVE_work_2019/pocket-nim/Dave/Generated/I2C_MASTER\i2c_master.h ****  *
 982:C:/c_root/electronics/DAVE_work_2019/pocket-nim/Dave/Generated/I2C_MASTER\i2c_master.h ****  *  #include <DAVE.h>         //Declarations from DAVE Code Generation (includes SFR declaration)
 983:C:/c_root/electronics/DAVE_work_2019/pocket-nim/Dave/Generated/I2C_MASTER\i2c_master.h ****  *
 984:C:/c_root/electronics/DAVE_work_2019/pocket-nim/Dave/Generated/I2C_MASTER\i2c_master.h ****  *  #define SLAVE_ADDRESS 0xA0
 985:C:/c_root/electronics/DAVE_work_2019/pocket-nim/Dave/Generated/I2C_MASTER\i2c_master.h ****  *  uint8_t Send_Data[] = "Infineon Technologies";
 986:C:/c_root/electronics/DAVE_work_2019/pocket-nim/Dave/Generated/I2C_MASTER\i2c_master.h ****  *  int main(void)
 987:C:/c_root/electronics/DAVE_work_2019/pocket-nim/Dave/Generated/I2C_MASTER\i2c_master.h ****  *  {
 988:C:/c_root/electronics/DAVE_work_2019/pocket-nim/Dave/Generated/I2C_MASTER\i2c_master.h ****  *    DAVE_STATUS_t init_status;
 989:C:/c_root/electronics/DAVE_work_2019/pocket-nim/Dave/Generated/I2C_MASTER\i2c_master.h ****  *
 990:C:/c_root/electronics/DAVE_work_2019/pocket-nim/Dave/Generated/I2C_MASTER\i2c_master.h ****  *    init_status = DAVE_Init();
 991:C:/c_root/electronics/DAVE_work_2019/pocket-nim/Dave/Generated/I2C_MASTER\i2c_master.h ****  *    if(init_status == DAVE_STATUS_SUCCESS)
 992:C:/c_root/electronics/DAVE_work_2019/pocket-nim/Dave/Generated/I2C_MASTER\i2c_master.h ****  *    {
 993:C:/c_root/electronics/DAVE_work_2019/pocket-nim/Dave/Generated/I2C_MASTER\i2c_master.h ****  *      //Configure transmit fifo trigger limit, draining level as 10
 994:C:/c_root/electronics/DAVE_work_2019/pocket-nim/Dave/Generated/I2C_MASTER\i2c_master.h ****  *      I2C_MASTER_SetTXFIFOTriggerLimit(&I2C_MASTER_0, 16, 10);
 995:C:/c_root/electronics/DAVE_work_2019/pocket-nim/Dave/Generated/I2C_MASTER\i2c_master.h ****  *      // Execution will happen two times in the interrupt handler as the limit is set to 10
 996:C:/c_root/electronics/DAVE_work_2019/pocket-nim/Dave/Generated/I2C_MASTER\i2c_master.h ****  *      I2C_MASTER_Transmit(&I2C_MASTER_0, true, SLAVE_ADDRESS, Send_Data, 16, true);
 997:C:/c_root/electronics/DAVE_work_2019/pocket-nim/Dave/Generated/I2C_MASTER\i2c_master.h ****  *      while(I2C_MASTER_IsTxBusy(&I2C_MASTER_0));
 998:C:/c_root/electronics/DAVE_work_2019/pocket-nim/Dave/Generated/I2C_MASTER\i2c_master.h ****  *    }
 999:C:/c_root/electronics/DAVE_work_2019/pocket-nim/Dave/Generated/I2C_MASTER\i2c_master.h ****  *    else
1000:C:/c_root/electronics/DAVE_work_2019/pocket-nim/Dave/Generated/I2C_MASTER\i2c_master.h ****  *    {
1001:C:/c_root/electronics/DAVE_work_2019/pocket-nim/Dave/Generated/I2C_MASTER\i2c_master.h ****  *      XMC_DEBUG("main: Application initialization failed");
1002:C:/c_root/electronics/DAVE_work_2019/pocket-nim/Dave/Generated/I2C_MASTER\i2c_master.h ****  *      while(1U)
1003:C:/c_root/electronics/DAVE_work_2019/pocket-nim/Dave/Generated/I2C_MASTER\i2c_master.h ****  *      {
1004:C:/c_root/electronics/DAVE_work_2019/pocket-nim/Dave/Generated/I2C_MASTER\i2c_master.h ****  *      }
1005:C:/c_root/electronics/DAVE_work_2019/pocket-nim/Dave/Generated/I2C_MASTER\i2c_master.h ****  *    }
1006:C:/c_root/electronics/DAVE_work_2019/pocket-nim/Dave/Generated/I2C_MASTER\i2c_master.h ****  *    return 1U;
1007:C:/c_root/electronics/DAVE_work_2019/pocket-nim/Dave/Generated/I2C_MASTER\i2c_master.h ****  *  }
1008:C:/c_root/electronics/DAVE_work_2019/pocket-nim/Dave/Generated/I2C_MASTER\i2c_master.h ****  *
1009:C:/c_root/electronics/DAVE_work_2019/pocket-nim/Dave/Generated/I2C_MASTER\i2c_master.h ****  * @endcode
1010:C:/c_root/electronics/DAVE_work_2019/pocket-nim/Dave/Generated/I2C_MASTER\i2c_master.h ****  */
1011:C:/c_root/electronics/DAVE_work_2019/pocket-nim/Dave/Generated/I2C_MASTER\i2c_master.h **** __STATIC_INLINE void I2C_MASTER_SetTXFIFOTriggerLimit(I2C_MASTER_t * const handle, const uint32_t s
1012:C:/c_root/electronics/DAVE_work_2019/pocket-nim/Dave/Generated/I2C_MASTER\i2c_master.h **** 		                                              const uint32_t limit)
1013:C:/c_root/electronics/DAVE_work_2019/pocket-nim/Dave/Generated/I2C_MASTER\i2c_master.h **** {
1014:C:/c_root/electronics/DAVE_work_2019/pocket-nim/Dave/Generated/I2C_MASTER\i2c_master.h ****   XMC_ASSERT("I2C_MASTER_SetTXFIFOTriggerLimit: invalid handle", (handle != NULL))
1015:C:/c_root/electronics/DAVE_work_2019/pocket-nim/Dave/Generated/I2C_MASTER\i2c_master.h ****   XMC_USIC_CH_TXFIFO_SetSizeTriggerLimit(handle->channel, (XMC_USIC_CH_FIFO_SIZE_t)size, limit);
1016:C:/c_root/electronics/DAVE_work_2019/pocket-nim/Dave/Generated/I2C_MASTER\i2c_master.h **** }
1017:C:/c_root/electronics/DAVE_work_2019/pocket-nim/Dave/Generated/I2C_MASTER\i2c_master.h **** /**
1018:C:/c_root/electronics/DAVE_work_2019/pocket-nim/Dave/Generated/I2C_MASTER\i2c_master.h ****  * @brief Configures trigger limit for the receive FIFO.
1019:C:/c_root/electronics/DAVE_work_2019/pocket-nim/Dave/Generated/I2C_MASTER\i2c_master.h ****  *
1020:C:/c_root/electronics/DAVE_work_2019/pocket-nim/Dave/Generated/I2C_MASTER\i2c_master.h ****  * @param  handle I2C_MASTER APP handle pointer of type @ref I2C_MASTER_t
1021:C:/c_root/electronics/DAVE_work_2019/pocket-nim/Dave/Generated/I2C_MASTER\i2c_master.h ****  * @param  size   FIFO size
1022:C:/c_root/electronics/DAVE_work_2019/pocket-nim/Dave/Generated/I2C_MASTER\i2c_master.h ****  * @param  limit Value of receive FIFO filling level, transition above which the interrupt should b
1023:C:/c_root/electronics/DAVE_work_2019/pocket-nim/Dave/Generated/I2C_MASTER\i2c_master.h ****  *               \bRange: 0 to receive FIFO size.\n
1024:C:/c_root/electronics/DAVE_work_2019/pocket-nim/Dave/Generated/I2C_MASTER\i2c_master.h ****  *               e.g, If receive FIFO size is 16, and limit is configured as 8, FIFO receive buffer
1025:C:/c_root/electronics/DAVE_work_2019/pocket-nim/Dave/Generated/I2C_MASTER\i2c_master.h ****  *               will be generated when the FIFO filling level rises from 8 to 9.\n
1026:C:/c_root/electronics/DAVE_work_2019/pocket-nim/Dave/Generated/I2C_MASTER\i2c_master.h ****  *
1027:C:/c_root/electronics/DAVE_work_2019/pocket-nim/Dave/Generated/I2C_MASTER\i2c_master.h ****  * @return None\n
1028:C:/c_root/electronics/DAVE_work_2019/pocket-nim/Dave/Generated/I2C_MASTER\i2c_master.h ****  *
1029:C:/c_root/electronics/DAVE_work_2019/pocket-nim/Dave/Generated/I2C_MASTER\i2c_master.h ****  * \par<b>Description:</b><br>
1030:C:/c_root/electronics/DAVE_work_2019/pocket-nim/Dave/Generated/I2C_MASTER\i2c_master.h ****  * Receive FIFO trigger limit is configured by setting its value in the RBCTR register.
1031:C:/c_root/electronics/DAVE_work_2019/pocket-nim/Dave/Generated/I2C_MASTER\i2c_master.h ****  * Receive FIFO is configured to generate interrupt when the FIFO filling level rises
1032:C:/c_root/electronics/DAVE_work_2019/pocket-nim/Dave/Generated/I2C_MASTER\i2c_master.h ****  * above the trigger limit.
1033:C:/c_root/electronics/DAVE_work_2019/pocket-nim/Dave/Generated/I2C_MASTER\i2c_master.h ****  *
1034:C:/c_root/electronics/DAVE_work_2019/pocket-nim/Dave/Generated/I2C_MASTER\i2c_master.h ****  * Example Usage:
1035:C:/c_root/electronics/DAVE_work_2019/pocket-nim/Dave/Generated/I2C_MASTER\i2c_master.h ****  * @code
1036:C:/c_root/electronics/DAVE_work_2019/pocket-nim/Dave/Generated/I2C_MASTER\i2c_master.h ****  *
1037:C:/c_root/electronics/DAVE_work_2019/pocket-nim/Dave/Generated/I2C_MASTER\i2c_master.h ****  *  #include <DAVE.h>         //Declarations from DAVE Code Generation (includes SFR declaration)
1038:C:/c_root/electronics/DAVE_work_2019/pocket-nim/Dave/Generated/I2C_MASTER\i2c_master.h ****  *
1039:C:/c_root/electronics/DAVE_work_2019/pocket-nim/Dave/Generated/I2C_MASTER\i2c_master.h ****  *  #define SLAVE_ADDRESS 0xA0
1040:C:/c_root/electronics/DAVE_work_2019/pocket-nim/Dave/Generated/I2C_MASTER\i2c_master.h ****  *
1041:C:/c_root/electronics/DAVE_work_2019/pocket-nim/Dave/Generated/I2C_MASTER\i2c_master.h ****  *  uint8_t Rx_Data[256];
1042:C:/c_root/electronics/DAVE_work_2019/pocket-nim/Dave/Generated/I2C_MASTER\i2c_master.h ****  *  int main(void)
1043:C:/c_root/electronics/DAVE_work_2019/pocket-nim/Dave/Generated/I2C_MASTER\i2c_master.h ****  *  {
1044:C:/c_root/electronics/DAVE_work_2019/pocket-nim/Dave/Generated/I2C_MASTER\i2c_master.h ****  *    DAVE_STATUS_t init_status;
1045:C:/c_root/electronics/DAVE_work_2019/pocket-nim/Dave/Generated/I2C_MASTER\i2c_master.h ****  *
1046:C:/c_root/electronics/DAVE_work_2019/pocket-nim/Dave/Generated/I2C_MASTER\i2c_master.h ****  *    init_status = DAVE_Init();
1047:C:/c_root/electronics/DAVE_work_2019/pocket-nim/Dave/Generated/I2C_MASTER\i2c_master.h ****  *    if(init_status == DAVE_STATUS_SUCCESS)
1048:C:/c_root/electronics/DAVE_work_2019/pocket-nim/Dave/Generated/I2C_MASTER\i2c_master.h ****  *    {
1049:C:/c_root/electronics/DAVE_work_2019/pocket-nim/Dave/Generated/I2C_MASTER\i2c_master.h ****  *      //Configure receive fifo trigger limit to filling level as 10
1050:C:/c_root/electronics/DAVE_work_2019/pocket-nim/Dave/Generated/I2C_MASTER\i2c_master.h ****  *      I2C_MASTER_SetRXFIFOTriggerLimit(&I2C_MASTER_0, 16, 10);
1051:C:/c_root/electronics/DAVE_work_2019/pocket-nim/Dave/Generated/I2C_MASTER\i2c_master.h ****  *      // Execution will happen two times in the receive interrupt handler as the limit is set to 
1052:C:/c_root/electronics/DAVE_work_2019/pocket-nim/Dave/Generated/I2C_MASTER\i2c_master.h ****  *      I2C_MASTER_Receive(&I2C_MASTER_0, true, SLAVE_ADDRESS, Rx_Data, 16, true, true);
1053:C:/c_root/electronics/DAVE_work_2019/pocket-nim/Dave/Generated/I2C_MASTER\i2c_master.h ****  *      while(I2C_MASTER_IsRxBusy(&I2C_MASTER_0));
1054:C:/c_root/electronics/DAVE_work_2019/pocket-nim/Dave/Generated/I2C_MASTER\i2c_master.h ****  *    }
1055:C:/c_root/electronics/DAVE_work_2019/pocket-nim/Dave/Generated/I2C_MASTER\i2c_master.h ****  *    else
1056:C:/c_root/electronics/DAVE_work_2019/pocket-nim/Dave/Generated/I2C_MASTER\i2c_master.h ****  *    {
1057:C:/c_root/electronics/DAVE_work_2019/pocket-nim/Dave/Generated/I2C_MASTER\i2c_master.h ****  *      XMC_DEBUG("main: Application initialization failed");
1058:C:/c_root/electronics/DAVE_work_2019/pocket-nim/Dave/Generated/I2C_MASTER\i2c_master.h ****  *      while(1U)
1059:C:/c_root/electronics/DAVE_work_2019/pocket-nim/Dave/Generated/I2C_MASTER\i2c_master.h ****  *      {
1060:C:/c_root/electronics/DAVE_work_2019/pocket-nim/Dave/Generated/I2C_MASTER\i2c_master.h ****  *      }
1061:C:/c_root/electronics/DAVE_work_2019/pocket-nim/Dave/Generated/I2C_MASTER\i2c_master.h ****  *    }
1062:C:/c_root/electronics/DAVE_work_2019/pocket-nim/Dave/Generated/I2C_MASTER\i2c_master.h ****  *    return 1U;
1063:C:/c_root/electronics/DAVE_work_2019/pocket-nim/Dave/Generated/I2C_MASTER\i2c_master.h ****  *  }
1064:C:/c_root/electronics/DAVE_work_2019/pocket-nim/Dave/Generated/I2C_MASTER\i2c_master.h ****  *
1065:C:/c_root/electronics/DAVE_work_2019/pocket-nim/Dave/Generated/I2C_MASTER\i2c_master.h ****  * @endcode
1066:C:/c_root/electronics/DAVE_work_2019/pocket-nim/Dave/Generated/I2C_MASTER\i2c_master.h ****  */
1067:C:/c_root/electronics/DAVE_work_2019/pocket-nim/Dave/Generated/I2C_MASTER\i2c_master.h **** __STATIC_INLINE void I2C_MASTER_SetRXFIFOTriggerLimit(I2C_MASTER_t * const handle, const uint32_t s
1068:C:/c_root/electronics/DAVE_work_2019/pocket-nim/Dave/Generated/I2C_MASTER\i2c_master.h **** 		                                              const uint32_t limit)
1069:C:/c_root/electronics/DAVE_work_2019/pocket-nim/Dave/Generated/I2C_MASTER\i2c_master.h **** {
1070:C:/c_root/electronics/DAVE_work_2019/pocket-nim/Dave/Generated/I2C_MASTER\i2c_master.h ****   XMC_ASSERT("I2C_MASTER_SetRXFIFOTriggerLimit: invalid handle", (handle != NULL))
1071:C:/c_root/electronics/DAVE_work_2019/pocket-nim/Dave/Generated/I2C_MASTER\i2c_master.h ****   XMC_USIC_CH_RXFIFO_SetSizeTriggerLimit(handle->channel, (XMC_USIC_CH_FIFO_SIZE_t)size, limit);
1072:C:/c_root/electronics/DAVE_work_2019/pocket-nim/Dave/Generated/I2C_MASTER\i2c_master.h **** }
1073:C:/c_root/electronics/DAVE_work_2019/pocket-nim/Dave/Generated/I2C_MASTER\i2c_master.h **** 
1074:C:/c_root/electronics/DAVE_work_2019/pocket-nim/Dave/Generated/I2C_MASTER\i2c_master.h **** /**
1075:C:/c_root/electronics/DAVE_work_2019/pocket-nim/Dave/Generated/I2C_MASTER\i2c_master.h ****  * @brief Checks if the transmit FIFO is full.
1076:C:/c_root/electronics/DAVE_work_2019/pocket-nim/Dave/Generated/I2C_MASTER\i2c_master.h ****  *
1077:C:/c_root/electronics/DAVE_work_2019/pocket-nim/Dave/Generated/I2C_MASTER\i2c_master.h ****  * @param  handle I2C_MASTER APP handle pointer of type @ref I2C_MASTER_t
1078:C:/c_root/electronics/DAVE_work_2019/pocket-nim/Dave/Generated/I2C_MASTER\i2c_master.h ****  *
1079:C:/c_root/electronics/DAVE_work_2019/pocket-nim/Dave/Generated/I2C_MASTER\i2c_master.h ****  * @return bool Status of transmit FIFO filling level.
1080:C:/c_root/electronics/DAVE_work_2019/pocket-nim/Dave/Generated/I2C_MASTER\i2c_master.h ****  *              \bRange: \atrue- if transmit FIFO is full.<br>
1081:C:/c_root/electronics/DAVE_work_2019/pocket-nim/Dave/Generated/I2C_MASTER\i2c_master.h ****  *                       \afalse- if transmit FIFO is not full.<br>
1082:C:/c_root/electronics/DAVE_work_2019/pocket-nim/Dave/Generated/I2C_MASTER\i2c_master.h ****  * \par<b>Description:</b><br>
1083:C:/c_root/electronics/DAVE_work_2019/pocket-nim/Dave/Generated/I2C_MASTER\i2c_master.h ****  * Checks the status using the register TRBSR. Can be used while filling
1084:C:/c_root/electronics/DAVE_work_2019/pocket-nim/Dave/Generated/I2C_MASTER\i2c_master.h ****  * data to the transmit FIFO.
1085:C:/c_root/electronics/DAVE_work_2019/pocket-nim/Dave/Generated/I2C_MASTER\i2c_master.h ****  * \par<b>NOTE: </b><br>: Transmit should be "Direct" mode in advanced settings tab.<br>
1086:C:/c_root/electronics/DAVE_work_2019/pocket-nim/Dave/Generated/I2C_MASTER\i2c_master.h ****  * Example Usage:
1087:C:/c_root/electronics/DAVE_work_2019/pocket-nim/Dave/Generated/I2C_MASTER\i2c_master.h ****  *
1088:C:/c_root/electronics/DAVE_work_2019/pocket-nim/Dave/Generated/I2C_MASTER\i2c_master.h ****  * @code
1089:C:/c_root/electronics/DAVE_work_2019/pocket-nim/Dave/Generated/I2C_MASTER\i2c_master.h ****  *
1090:C:/c_root/electronics/DAVE_work_2019/pocket-nim/Dave/Generated/I2C_MASTER\i2c_master.h ****  *  #include <DAVE.h>                 //Declarations from DAVE Code Generation (includes SFR declar
1091:C:/c_root/electronics/DAVE_work_2019/pocket-nim/Dave/Generated/I2C_MASTER\i2c_master.h ****  *  #define SLAVE_ADDRESS 0xA0
1092:C:/c_root/electronics/DAVE_work_2019/pocket-nim/Dave/Generated/I2C_MASTER\i2c_master.h **** 
1093:C:/c_root/electronics/DAVE_work_2019/pocket-nim/Dave/Generated/I2C_MASTER\i2c_master.h ****  *
1094:C:/c_root/electronics/DAVE_work_2019/pocket-nim/Dave/Generated/I2C_MASTER\i2c_master.h ****  *  uint8_t send_data[] = "Infineon Technologies";
1095:C:/c_root/electronics/DAVE_work_2019/pocket-nim/Dave/Generated/I2C_MASTER\i2c_master.h ****  *  int main(void)
1096:C:/c_root/electronics/DAVE_work_2019/pocket-nim/Dave/Generated/I2C_MASTER\i2c_master.h ****  *  {
1097:C:/c_root/electronics/DAVE_work_2019/pocket-nim/Dave/Generated/I2C_MASTER\i2c_master.h ****  *    DAVE_STATUS_t status;
1098:C:/c_root/electronics/DAVE_work_2019/pocket-nim/Dave/Generated/I2C_MASTER\i2c_master.h ****  *    status = DAVE_Init();           // Initialization of DAVE APPs
1099:C:/c_root/electronics/DAVE_work_2019/pocket-nim/Dave/Generated/I2C_MASTER\i2c_master.h ****  *
1100:C:/c_root/electronics/DAVE_work_2019/pocket-nim/Dave/Generated/I2C_MASTER\i2c_master.h ****  *    if(status == DAVE_STATUS_FAILURE)
1101:C:/c_root/electronics/DAVE_work_2019/pocket-nim/Dave/Generated/I2C_MASTER\i2c_master.h ****  *    {
1102:C:/c_root/electronics/DAVE_work_2019/pocket-nim/Dave/Generated/I2C_MASTER\i2c_master.h ****  *      XMC_DEBUG("DAVE APPs initialization failed\n");
1103:C:/c_root/electronics/DAVE_work_2019/pocket-nim/Dave/Generated/I2C_MASTER\i2c_master.h ****  *
1104:C:/c_root/electronics/DAVE_work_2019/pocket-nim/Dave/Generated/I2C_MASTER\i2c_master.h ****  *      while(1U)
1105:C:/c_root/electronics/DAVE_work_2019/pocket-nim/Dave/Generated/I2C_MASTER\i2c_master.h ****  *      {
1106:C:/c_root/electronics/DAVE_work_2019/pocket-nim/Dave/Generated/I2C_MASTER\i2c_master.h ****  *      }
1107:C:/c_root/electronics/DAVE_work_2019/pocket-nim/Dave/Generated/I2C_MASTER\i2c_master.h ****  *  }
1108:C:/c_root/electronics/DAVE_work_2019/pocket-nim/Dave/Generated/I2C_MASTER\i2c_master.h ****  *  I2C_MASTER_Transmit(&I2C_MASTER_0, true, SLAVE_ADDRESS, &send_data[0], 10, false);
1109:C:/c_root/electronics/DAVE_work_2019/pocket-nim/Dave/Generated/I2C_MASTER\i2c_master.h ****  *  //Wait when Tx FIFO is full
1110:C:/c_root/electronics/DAVE_work_2019/pocket-nim/Dave/Generated/I2C_MASTER\i2c_master.h ****  *  while(!I2C_MASTER_IsTXFIFOFull(&I2C_MASTER_0))
1111:C:/c_root/electronics/DAVE_work_2019/pocket-nim/Dave/Generated/I2C_MASTER\i2c_master.h ****  *  {
1112:C:/c_root/electronics/DAVE_work_2019/pocket-nim/Dave/Generated/I2C_MASTER\i2c_master.h ****  *    I2C_MASTER_Transmit(&I2C_MASTER_0, false, SLAVE_ADDRESS, &send_data[0], 10, false);
1113:C:/c_root/electronics/DAVE_work_2019/pocket-nim/Dave/Generated/I2C_MASTER\i2c_master.h ****  *  }
1114:C:/c_root/electronics/DAVE_work_2019/pocket-nim/Dave/Generated/I2C_MASTER\i2c_master.h ****  *  while(1U)
1115:C:/c_root/electronics/DAVE_work_2019/pocket-nim/Dave/Generated/I2C_MASTER\i2c_master.h ****  *  {
1116:C:/c_root/electronics/DAVE_work_2019/pocket-nim/Dave/Generated/I2C_MASTER\i2c_master.h ****  *  }
1117:C:/c_root/electronics/DAVE_work_2019/pocket-nim/Dave/Generated/I2C_MASTER\i2c_master.h ****  * }
1118:C:/c_root/electronics/DAVE_work_2019/pocket-nim/Dave/Generated/I2C_MASTER\i2c_master.h ****  * @endcode
1119:C:/c_root/electronics/DAVE_work_2019/pocket-nim/Dave/Generated/I2C_MASTER\i2c_master.h ****  */
1120:C:/c_root/electronics/DAVE_work_2019/pocket-nim/Dave/Generated/I2C_MASTER\i2c_master.h **** __STATIC_INLINE bool I2C_MASTER_IsTXFIFOFull(const I2C_MASTER_t* const handle)
1121:C:/c_root/electronics/DAVE_work_2019/pocket-nim/Dave/Generated/I2C_MASTER\i2c_master.h **** {
1122:C:/c_root/electronics/DAVE_work_2019/pocket-nim/Dave/Generated/I2C_MASTER\i2c_master.h ****   XMC_ASSERT("I2C_MASTER_IsTXFIFOFull: invalid handle", (handle != NULL))
1123:C:/c_root/electronics/DAVE_work_2019/pocket-nim/Dave/Generated/I2C_MASTER\i2c_master.h ****   return XMC_USIC_CH_TXFIFO_IsFull(handle->channel);
1124:C:/c_root/electronics/DAVE_work_2019/pocket-nim/Dave/Generated/I2C_MASTER\i2c_master.h **** }
1125:C:/c_root/electronics/DAVE_work_2019/pocket-nim/Dave/Generated/I2C_MASTER\i2c_master.h **** 
1126:C:/c_root/electronics/DAVE_work_2019/pocket-nim/Dave/Generated/I2C_MASTER\i2c_master.h **** /**
1127:C:/c_root/electronics/DAVE_work_2019/pocket-nim/Dave/Generated/I2C_MASTER\i2c_master.h ****  * @brief Checks if the receive FIFO is empty.
1128:C:/c_root/electronics/DAVE_work_2019/pocket-nim/Dave/Generated/I2C_MASTER\i2c_master.h ****  *
1129:C:/c_root/electronics/DAVE_work_2019/pocket-nim/Dave/Generated/I2C_MASTER\i2c_master.h ****  * @param  handle I2C_MASTER APP handle pointer of type @ref I2C_MASTER_t
1130:C:/c_root/electronics/DAVE_work_2019/pocket-nim/Dave/Generated/I2C_MASTER\i2c_master.h ****  *
1131:C:/c_root/electronics/DAVE_work_2019/pocket-nim/Dave/Generated/I2C_MASTER\i2c_master.h ****  * @return bool Status of receive FIFO filling level.
1132:C:/c_root/electronics/DAVE_work_2019/pocket-nim/Dave/Generated/I2C_MASTER\i2c_master.h ****  *              \bRange: \atrue- if receive FIFO is empty.<br>
1133:C:/c_root/electronics/DAVE_work_2019/pocket-nim/Dave/Generated/I2C_MASTER\i2c_master.h ****  *                       \afalse- if receive FIFO still has data.<br>
1134:C:/c_root/electronics/DAVE_work_2019/pocket-nim/Dave/Generated/I2C_MASTER\i2c_master.h ****  * \par<b>Description:</b><br>
1135:C:/c_root/electronics/DAVE_work_2019/pocket-nim/Dave/Generated/I2C_MASTER\i2c_master.h ****  * Checks the status using the register TRBSR. Can be used while reading data from the receive FIFO
1136:C:/c_root/electronics/DAVE_work_2019/pocket-nim/Dave/Generated/I2C_MASTER\i2c_master.h ****  *
1137:C:/c_root/electronics/DAVE_work_2019/pocket-nim/Dave/Generated/I2C_MASTER\i2c_master.h ****  * Example Usage:
1138:C:/c_root/electronics/DAVE_work_2019/pocket-nim/Dave/Generated/I2C_MASTER\i2c_master.h ****  * @code
1139:C:/c_root/electronics/DAVE_work_2019/pocket-nim/Dave/Generated/I2C_MASTER\i2c_master.h ****  *
1140:C:/c_root/electronics/DAVE_work_2019/pocket-nim/Dave/Generated/I2C_MASTER\i2c_master.h ****  *  #include <DAVE.h>                 //Declarations from DAVE Code Generation (includes SFR declar
1141:C:/c_root/electronics/DAVE_work_2019/pocket-nim/Dave/Generated/I2C_MASTER\i2c_master.h ****  *  #define SLAVE_ADDRESS (0xA0)
1142:C:/c_root/electronics/DAVE_work_2019/pocket-nim/Dave/Generated/I2C_MASTER\i2c_master.h ****  *  int main(void)
1143:C:/c_root/electronics/DAVE_work_2019/pocket-nim/Dave/Generated/I2C_MASTER\i2c_master.h ****  *  {
1144:C:/c_root/electronics/DAVE_work_2019/pocket-nim/Dave/Generated/I2C_MASTER\i2c_master.h ****  *    DAVE_STATUS_t init_status;
1145:C:/c_root/electronics/DAVE_work_2019/pocket-nim/Dave/Generated/I2C_MASTER\i2c_master.h ****  *    uint8_t rec_data[64];
1146:C:/c_root/electronics/DAVE_work_2019/pocket-nim/Dave/Generated/I2C_MASTER\i2c_master.h ****  *    uint8_t index = 0, loc_index = 0;
1147:C:/c_root/electronics/DAVE_work_2019/pocket-nim/Dave/Generated/I2C_MASTER\i2c_master.h ****  *    init_status = DAVE_Init();
1148:C:/c_root/electronics/DAVE_work_2019/pocket-nim/Dave/Generated/I2C_MASTER\i2c_master.h ****  *    if(init_status == DAVE_STATUS_SUCCESS)
1149:C:/c_root/electronics/DAVE_work_2019/pocket-nim/Dave/Generated/I2C_MASTER\i2c_master.h ****  *    {
1150:C:/c_root/electronics/DAVE_work_2019/pocket-nim/Dave/Generated/I2C_MASTER\i2c_master.h ****  *      I2C_MASTER_SendStart(&I2C_MASTER_0, SLAVE_ADDRESS, XMC_I2C_CH_CMD_WRITE);
1151:C:/c_root/electronics/DAVE_work_2019/pocket-nim/Dave/Generated/I2C_MASTER\i2c_master.h ****  *      while(I2C_MASTER_GetFlagStatus(&I2C_MASTER_0, XMC_I2C_CH_STATUS_FLAG_ACK_RECEIVED) == 0U)
1152:C:/c_root/electronics/DAVE_work_2019/pocket-nim/Dave/Generated/I2C_MASTER\i2c_master.h ****  *      {
1153:C:/c_root/electronics/DAVE_work_2019/pocket-nim/Dave/Generated/I2C_MASTER\i2c_master.h ****  *       // wait for ACK
1154:C:/c_root/electronics/DAVE_work_2019/pocket-nim/Dave/Generated/I2C_MASTER\i2c_master.h ****  *      }
1155:C:/c_root/electronics/DAVE_work_2019/pocket-nim/Dave/Generated/I2C_MASTER\i2c_master.h ****  *      I2C_MASTER_ClearFlag(&I2C_MASTER_0,XMC_I2C_CH_STATUS_FLAG_ACK_RECEIVED);
1156:C:/c_root/electronics/DAVE_work_2019/pocket-nim/Dave/Generated/I2C_MASTER\i2c_master.h ****  *      // write to address 0
1157:C:/c_root/electronics/DAVE_work_2019/pocket-nim/Dave/Generated/I2C_MASTER\i2c_master.h ****  *      I2C_MASTER_TransmitByte(&I2C_MASTER_0, 0x00);
1158:C:/c_root/electronics/DAVE_work_2019/pocket-nim/Dave/Generated/I2C_MASTER\i2c_master.h ****  *      while(I2C_MASTER_GetFlagStatus(&I2C_MASTER_0, XMC_I2C_CH_STATUS_FLAG_ACK_RECEIVED) == 0U)
1159:C:/c_root/electronics/DAVE_work_2019/pocket-nim/Dave/Generated/I2C_MASTER\i2c_master.h ****  *      {
1160:C:/c_root/electronics/DAVE_work_2019/pocket-nim/Dave/Generated/I2C_MASTER\i2c_master.h ****  *       // wait for ACK
1161:C:/c_root/electronics/DAVE_work_2019/pocket-nim/Dave/Generated/I2C_MASTER\i2c_master.h ****  *      }
1162:C:/c_root/electronics/DAVE_work_2019/pocket-nim/Dave/Generated/I2C_MASTER\i2c_master.h ****  *      I2C_MASTER_ClearFlag(&I2C_MASTER_0,XMC_I2C_CH_STATUS_FLAG_ACK_RECEIVED);
1163:C:/c_root/electronics/DAVE_work_2019/pocket-nim/Dave/Generated/I2C_MASTER\i2c_master.h ****  *      I2C_MASTER_SendRepeatedStart(&I2C_MASTER_0, SLAVE_ADDRESS, XMC_I2C_CH_CMD_READ);
1164:C:/c_root/electronics/DAVE_work_2019/pocket-nim/Dave/Generated/I2C_MASTER\i2c_master.h ****  *      while(I2C_MASTER_GetFlagStatus(&I2C_MASTER_0, XMC_I2C_CH_STATUS_FLAG_ACK_RECEIVED) == 0U)
1165:C:/c_root/electronics/DAVE_work_2019/pocket-nim/Dave/Generated/I2C_MASTER\i2c_master.h ****  *      {
1166:C:/c_root/electronics/DAVE_work_2019/pocket-nim/Dave/Generated/I2C_MASTER\i2c_master.h ****  *       // wait for ACK
1167:C:/c_root/electronics/DAVE_work_2019/pocket-nim/Dave/Generated/I2C_MASTER\i2c_master.h ****  *      }
1168:C:/c_root/electronics/DAVE_work_2019/pocket-nim/Dave/Generated/I2C_MASTER\i2c_master.h ****  *      I2C_MASTER_ClearFlag(&I2C_MASTER_0,XMC_I2C_CH_STATUS_FLAG_ACK_RECEIVED);
1169:C:/c_root/electronics/DAVE_work_2019/pocket-nim/Dave/Generated/I2C_MASTER\i2c_master.h ****  *      while(index < 16)
1170:C:/c_root/electronics/DAVE_work_2019/pocket-nim/Dave/Generated/I2C_MASTER\i2c_master.h ****  *      {
1171:C:/c_root/electronics/DAVE_work_2019/pocket-nim/Dave/Generated/I2C_MASTER\i2c_master.h ****  *        I2C_MASTER_ReceiveACK(&I2C_MASTER_0);
1172:C:/c_root/electronics/DAVE_work_2019/pocket-nim/Dave/Generated/I2C_MASTER\i2c_master.h ****  *        index++;
1173:C:/c_root/electronics/DAVE_work_2019/pocket-nim/Dave/Generated/I2C_MASTER\i2c_master.h ****  *      }
1174:C:/c_root/electronics/DAVE_work_2019/pocket-nim/Dave/Generated/I2C_MASTER\i2c_master.h ****  *      //Wait when Rx FIFO is empty
1175:C:/c_root/electronics/DAVE_work_2019/pocket-nim/Dave/Generated/I2C_MASTER\i2c_master.h ****  *      while(!I2C_MASTER_IsRXFIFOEmpty(&I2C_MASTER_0))
1176:C:/c_root/electronics/DAVE_work_2019/pocket-nim/Dave/Generated/I2C_MASTER\i2c_master.h ****  *      {
1177:C:/c_root/electronics/DAVE_work_2019/pocket-nim/Dave/Generated/I2C_MASTER\i2c_master.h ****  *        rec_data[loc_index++] = I2C_MASTER_GetReceivedByte(&I2C_MASTER_0);
1178:C:/c_root/electronics/DAVE_work_2019/pocket-nim/Dave/Generated/I2C_MASTER\i2c_master.h ****  *      }
1179:C:/c_root/electronics/DAVE_work_2019/pocket-nim/Dave/Generated/I2C_MASTER\i2c_master.h ****  *    }
1180:C:/c_root/electronics/DAVE_work_2019/pocket-nim/Dave/Generated/I2C_MASTER\i2c_master.h ****  *   while(1U)
1181:C:/c_root/electronics/DAVE_work_2019/pocket-nim/Dave/Generated/I2C_MASTER\i2c_master.h ****  *   {
1182:C:/c_root/electronics/DAVE_work_2019/pocket-nim/Dave/Generated/I2C_MASTER\i2c_master.h ****  *   }
1183:C:/c_root/electronics/DAVE_work_2019/pocket-nim/Dave/Generated/I2C_MASTER\i2c_master.h ****  *  }
1184:C:/c_root/electronics/DAVE_work_2019/pocket-nim/Dave/Generated/I2C_MASTER\i2c_master.h ****  * @endcode
1185:C:/c_root/electronics/DAVE_work_2019/pocket-nim/Dave/Generated/I2C_MASTER\i2c_master.h ****  */
1186:C:/c_root/electronics/DAVE_work_2019/pocket-nim/Dave/Generated/I2C_MASTER\i2c_master.h **** __STATIC_INLINE bool I2C_MASTER_IsRXFIFOEmpty(const I2C_MASTER_t* const handle)
1187:C:/c_root/electronics/DAVE_work_2019/pocket-nim/Dave/Generated/I2C_MASTER\i2c_master.h **** {
1188:C:/c_root/electronics/DAVE_work_2019/pocket-nim/Dave/Generated/I2C_MASTER\i2c_master.h ****   XMC_ASSERT("I2C_MASTER_IsRXFIFOEmpty: invalid handle", (handle != NULL))
1189:C:/c_root/electronics/DAVE_work_2019/pocket-nim/Dave/Generated/I2C_MASTER\i2c_master.h ****   return XMC_USIC_CH_RXFIFO_IsEmpty(handle->channel);
1190:C:/c_root/electronics/DAVE_work_2019/pocket-nim/Dave/Generated/I2C_MASTER\i2c_master.h **** }
1191:C:/c_root/electronics/DAVE_work_2019/pocket-nim/Dave/Generated/I2C_MASTER\i2c_master.h **** 
1192:C:/c_root/electronics/DAVE_work_2019/pocket-nim/Dave/Generated/I2C_MASTER\i2c_master.h **** /**
1193:C:/c_root/electronics/DAVE_work_2019/pocket-nim/Dave/Generated/I2C_MASTER\i2c_master.h ****  * @brief Gets the status of event flags related to receive FIFO.
1194:C:/c_root/electronics/DAVE_work_2019/pocket-nim/Dave/Generated/I2C_MASTER\i2c_master.h ****  *
1195:C:/c_root/electronics/DAVE_work_2019/pocket-nim/Dave/Generated/I2C_MASTER\i2c_master.h ****  *
1196:C:/c_root/electronics/DAVE_work_2019/pocket-nim/Dave/Generated/I2C_MASTER\i2c_master.h ****  * @param  handle I2C_MASTER APP handle pointer of type @ref I2C_MASTER_t
1197:C:/c_root/electronics/DAVE_work_2019/pocket-nim/Dave/Generated/I2C_MASTER\i2c_master.h ****  *
1198:C:/c_root/electronics/DAVE_work_2019/pocket-nim/Dave/Generated/I2C_MASTER\i2c_master.h ****  * @return uint32_t: Status of standard receive buffer event, alternative receive buffer event and 
1199:C:/c_root/electronics/DAVE_work_2019/pocket-nim/Dave/Generated/I2C_MASTER\i2c_master.h ****  * error event in their bit positions in TRBSR register.\n
1200:C:/c_root/electronics/DAVE_work_2019/pocket-nim/Dave/Generated/I2C_MASTER\i2c_master.h ****  * \b Range: Use type @ref XMC_USIC_CH_RXFIFO_EVENT_t for event bitmasks. Multiple events' status c
1201:C:/c_root/electronics/DAVE_work_2019/pocket-nim/Dave/Generated/I2C_MASTER\i2c_master.h ****  * comparison using \a OR operation.
1202:C:/c_root/electronics/DAVE_work_2019/pocket-nim/Dave/Generated/I2C_MASTER\i2c_master.h ****  *
1203:C:/c_root/electronics/DAVE_work_2019/pocket-nim/Dave/Generated/I2C_MASTER\i2c_master.h ****  * \par<b>Description:</b><br>
1204:C:/c_root/electronics/DAVE_work_2019/pocket-nim/Dave/Generated/I2C_MASTER\i2c_master.h ****  * It provides the status of standard receive buffer event, alternative receive buffer event and re
1205:C:/c_root/electronics/DAVE_work_2019/pocket-nim/Dave/Generated/I2C_MASTER\i2c_master.h ****  * event.
1206:C:/c_root/electronics/DAVE_work_2019/pocket-nim/Dave/Generated/I2C_MASTER\i2c_master.h ****  * Function masks the TRBSR register with the bitmask of SRBI, ARBI and RBERI flags. User has to ma
1207:C:/c_root/electronics/DAVE_work_2019/pocket-nim/Dave/Generated/I2C_MASTER\i2c_master.h ****  * interest before checking the status.
1208:C:/c_root/electronics/DAVE_work_2019/pocket-nim/Dave/Generated/I2C_MASTER\i2c_master.h ****  *
1209:C:/c_root/electronics/DAVE_work_2019/pocket-nim/Dave/Generated/I2C_MASTER\i2c_master.h ****  * Example Usage:
1210:C:/c_root/electronics/DAVE_work_2019/pocket-nim/Dave/Generated/I2C_MASTER\i2c_master.h ****  * @code
1211:C:/c_root/electronics/DAVE_work_2019/pocket-nim/Dave/Generated/I2C_MASTER\i2c_master.h ****  *
1212:C:/c_root/electronics/DAVE_work_2019/pocket-nim/Dave/Generated/I2C_MASTER\i2c_master.h ****  *   #include <DAVE.h>         //Declarations from DAVE Code Generation (includes SFR declaration)
1213:C:/c_root/electronics/DAVE_work_2019/pocket-nim/Dave/Generated/I2C_MASTER\i2c_master.h ****  *   #define SLAVE_ADDRESS 0xA0
1214:C:/c_root/electronics/DAVE_work_2019/pocket-nim/Dave/Generated/I2C_MASTER\i2c_master.h ****  *   uint8_t mem_address[2];
1215:C:/c_root/electronics/DAVE_work_2019/pocket-nim/Dave/Generated/I2C_MASTER\i2c_master.h ****  *   int main(void)
1216:C:/c_root/electronics/DAVE_work_2019/pocket-nim/Dave/Generated/I2C_MASTER\i2c_master.h ****  *   {
1217:C:/c_root/electronics/DAVE_work_2019/pocket-nim/Dave/Generated/I2C_MASTER\i2c_master.h ****  *     DAVE_STATUS_t init_status;
1218:C:/c_root/electronics/DAVE_work_2019/pocket-nim/Dave/Generated/I2C_MASTER\i2c_master.h ****  *
1219:C:/c_root/electronics/DAVE_work_2019/pocket-nim/Dave/Generated/I2C_MASTER\i2c_master.h ****  *     init_status = DAVE_Init();
1220:C:/c_root/electronics/DAVE_work_2019/pocket-nim/Dave/Generated/I2C_MASTER\i2c_master.h ****  *     if(init_status == DAVE_STATUS_SUCCESS)
1221:C:/c_root/electronics/DAVE_work_2019/pocket-nim/Dave/Generated/I2C_MASTER\i2c_master.h ****  *     {
1222:C:/c_root/electronics/DAVE_work_2019/pocket-nim/Dave/Generated/I2C_MASTER\i2c_master.h ****  *       mem_address[0] = 0x00;//memory which need to be read from slave
1223:C:/c_root/electronics/DAVE_work_2019/pocket-nim/Dave/Generated/I2C_MASTER\i2c_master.h ****  *       //Configure receive fifo trigger limit as 10
1224:C:/c_root/electronics/DAVE_work_2019/pocket-nim/Dave/Generated/I2C_MASTER\i2c_master.h ****  *       I2C_MASTER_SetRXFIFOTriggerLimit(&I2C_MASTER_0, 16, 10);
1225:C:/c_root/electronics/DAVE_work_2019/pocket-nim/Dave/Generated/I2C_MASTER\i2c_master.h ****  *       I2C_MASTER_StartTransmitIRQ(&I2C_MASTER_0,true,SLAVE_ADDRESS,mem_address,1,false);
1226:C:/c_root/electronics/DAVE_work_2019/pocket-nim/Dave/Generated/I2C_MASTER\i2c_master.h ****  *       while(I2C_MASTER_IsTxBusy(&I2C_MASTER_0));
1227:C:/c_root/electronics/DAVE_work_2019/pocket-nim/Dave/Generated/I2C_MASTER\i2c_master.h ****  *       I2C_MASTER_StartReceiveIRQ(&I2C_MASTER_0,true,SLAVE_ADDRESS,mem_address,16,true, true);
1228:C:/c_root/electronics/DAVE_work_2019/pocket-nim/Dave/Generated/I2C_MASTER\i2c_master.h ****  *       //Wait for FIFO transmit standard buffer interrupt to fill it again with remaining data
1229:C:/c_root/electronics/DAVE_work_2019/pocket-nim/Dave/Generated/I2C_MASTER\i2c_master.h ****  *       while((I2C_MASTER_GetRXFIFOStatus(&I2C_MASTER_0) & XMC_USIC_CH_RXFIFO_EVENT_STANDARD) == 0
1230:C:/c_root/electronics/DAVE_work_2019/pocket-nim/Dave/Generated/I2C_MASTER\i2c_master.h ****  *       I2C_MASTER_ClearRXFIFOStatus(&I2C_MASTER_0, XMC_USIC_CH_RXFIFO_EVENT_STANDARD);
1231:C:/c_root/electronics/DAVE_work_2019/pocket-nim/Dave/Generated/I2C_MASTER\i2c_master.h ****  *       I2C_MASTER_StartReceiveIRQ(&I2C_MASTER_0,true,SLAVE_ADDRESS,mem_address,6,false, false);
1232:C:/c_root/electronics/DAVE_work_2019/pocket-nim/Dave/Generated/I2C_MASTER\i2c_master.h ****  *     }
1233:C:/c_root/electronics/DAVE_work_2019/pocket-nim/Dave/Generated/I2C_MASTER\i2c_master.h ****  *     else
1234:C:/c_root/electronics/DAVE_work_2019/pocket-nim/Dave/Generated/I2C_MASTER\i2c_master.h ****  *     {
1235:C:/c_root/electronics/DAVE_work_2019/pocket-nim/Dave/Generated/I2C_MASTER\i2c_master.h ****  *      XMC_DEBUG("main: Application initialization failed");
1236:C:/c_root/electronics/DAVE_work_2019/pocket-nim/Dave/Generated/I2C_MASTER\i2c_master.h ****  *      while(1U)
1237:C:/c_root/electronics/DAVE_work_2019/pocket-nim/Dave/Generated/I2C_MASTER\i2c_master.h ****  *      {
1238:C:/c_root/electronics/DAVE_work_2019/pocket-nim/Dave/Generated/I2C_MASTER\i2c_master.h ****  *      }
1239:C:/c_root/electronics/DAVE_work_2019/pocket-nim/Dave/Generated/I2C_MASTER\i2c_master.h ****  *     }
1240:C:/c_root/electronics/DAVE_work_2019/pocket-nim/Dave/Generated/I2C_MASTER\i2c_master.h ****  *      return 1U;
1241:C:/c_root/electronics/DAVE_work_2019/pocket-nim/Dave/Generated/I2C_MASTER\i2c_master.h ****  *   }
1242:C:/c_root/electronics/DAVE_work_2019/pocket-nim/Dave/Generated/I2C_MASTER\i2c_master.h ****  * @endcode
1243:C:/c_root/electronics/DAVE_work_2019/pocket-nim/Dave/Generated/I2C_MASTER\i2c_master.h ****  *
1244:C:/c_root/electronics/DAVE_work_2019/pocket-nim/Dave/Generated/I2C_MASTER\i2c_master.h ****  */
1245:C:/c_root/electronics/DAVE_work_2019/pocket-nim/Dave/Generated/I2C_MASTER\i2c_master.h **** __STATIC_INLINE uint32_t I2C_MASTER_GetRXFIFOStatus(const I2C_MASTER_t* const handle)
1246:C:/c_root/electronics/DAVE_work_2019/pocket-nim/Dave/Generated/I2C_MASTER\i2c_master.h **** {
1247:C:/c_root/electronics/DAVE_work_2019/pocket-nim/Dave/Generated/I2C_MASTER\i2c_master.h ****   XMC_ASSERT("I2C_MASTER_GetRXFIFOStatus: invalid handle", (handle != NULL))
1248:C:/c_root/electronics/DAVE_work_2019/pocket-nim/Dave/Generated/I2C_MASTER\i2c_master.h ****   return XMC_USIC_CH_RXFIFO_GetEvent(handle->channel);
1249:C:/c_root/electronics/DAVE_work_2019/pocket-nim/Dave/Generated/I2C_MASTER\i2c_master.h **** }
1250:C:/c_root/electronics/DAVE_work_2019/pocket-nim/Dave/Generated/I2C_MASTER\i2c_master.h **** 
1251:C:/c_root/electronics/DAVE_work_2019/pocket-nim/Dave/Generated/I2C_MASTER\i2c_master.h **** /**
1252:C:/c_root/electronics/DAVE_work_2019/pocket-nim/Dave/Generated/I2C_MASTER\i2c_master.h ****  * @brief Function clears the specified FIFO event flag related to
1253:C:/c_root/electronics/DAVE_work_2019/pocket-nim/Dave/Generated/I2C_MASTER\i2c_master.h ****  * transmit FIFO.
1254:C:/c_root/electronics/DAVE_work_2019/pocket-nim/Dave/Generated/I2C_MASTER\i2c_master.h ****  *
1255:C:/c_root/electronics/DAVE_work_2019/pocket-nim/Dave/Generated/I2C_MASTER\i2c_master.h ****  *
1256:C:/c_root/electronics/DAVE_work_2019/pocket-nim/Dave/Generated/I2C_MASTER\i2c_master.h ****  * @param  handle I2C_MASTER APP handle pointer of type @ref I2C_MASTER_t
1257:C:/c_root/electronics/DAVE_work_2019/pocket-nim/Dave/Generated/I2C_MASTER\i2c_master.h ****  * @param  flag Value with event bits at their bit positions in TRBSR register to be cleared.\n
1258:C:/c_root/electronics/DAVE_work_2019/pocket-nim/Dave/Generated/I2C_MASTER\i2c_master.h ****  *             \b Range: Use type @ref XMC_USIC_CH_TXFIFO_EVENT_t. Multiple events can be combined 
1259:C:/c_root/electronics/DAVE_work_2019/pocket-nim/Dave/Generated/I2C_MASTER\i2c_master.h ****  *             \a OR operation.
1260:C:/c_root/electronics/DAVE_work_2019/pocket-nim/Dave/Generated/I2C_MASTER\i2c_master.h ****  *
1261:C:/c_root/electronics/DAVE_work_2019/pocket-nim/Dave/Generated/I2C_MASTER\i2c_master.h ****  * @return    None
1262:C:/c_root/electronics/DAVE_work_2019/pocket-nim/Dave/Generated/I2C_MASTER\i2c_master.h ****  *
1263:C:/c_root/electronics/DAVE_work_2019/pocket-nim/Dave/Generated/I2C_MASTER\i2c_master.h ****  * \par<b>Description:</b><br>
1264:C:/c_root/electronics/DAVE_work_2019/pocket-nim/Dave/Generated/I2C_MASTER\i2c_master.h ****  * Function clears a status bit in TRBSR register using the TRBSCR register. But the function does 
1265:C:/c_root/electronics/DAVE_work_2019/pocket-nim/Dave/Generated/I2C_MASTER\i2c_master.h ****  * value with the bit positions restricted to transmit FIFO status bits. User should ensure that th
1266:C:/c_root/electronics/DAVE_work_2019/pocket-nim/Dave/Generated/I2C_MASTER\i2c_master.h ****  * appropriately masked.
1267:C:/c_root/electronics/DAVE_work_2019/pocket-nim/Dave/Generated/I2C_MASTER\i2c_master.h ****  *
1268:C:/c_root/electronics/DAVE_work_2019/pocket-nim/Dave/Generated/I2C_MASTER\i2c_master.h ****  * Example Usage:
1269:C:/c_root/electronics/DAVE_work_2019/pocket-nim/Dave/Generated/I2C_MASTER\i2c_master.h ****  * @code
1270:C:/c_root/electronics/DAVE_work_2019/pocket-nim/Dave/Generated/I2C_MASTER\i2c_master.h ****  *
1271:C:/c_root/electronics/DAVE_work_2019/pocket-nim/Dave/Generated/I2C_MASTER\i2c_master.h ****  *  #include <DAVE.h>         //Declarations from DAVE Code Generation (includes SFR declaration)
1272:C:/c_root/electronics/DAVE_work_2019/pocket-nim/Dave/Generated/I2C_MASTER\i2c_master.h ****  *  #define SLAVE_ADDRESS 0xA0
1273:C:/c_root/electronics/DAVE_work_2019/pocket-nim/Dave/Generated/I2C_MASTER\i2c_master.h ****  *  uint8_t mem_address[2];
1274:C:/c_root/electronics/DAVE_work_2019/pocket-nim/Dave/Generated/I2C_MASTER\i2c_master.h ****  *  int main(void)
1275:C:/c_root/electronics/DAVE_work_2019/pocket-nim/Dave/Generated/I2C_MASTER\i2c_master.h ****  *  {
1276:C:/c_root/electronics/DAVE_work_2019/pocket-nim/Dave/Generated/I2C_MASTER\i2c_master.h ****  *    DAVE_STATUS_t init_status;
1277:C:/c_root/electronics/DAVE_work_2019/pocket-nim/Dave/Generated/I2C_MASTER\i2c_master.h ****  *
1278:C:/c_root/electronics/DAVE_work_2019/pocket-nim/Dave/Generated/I2C_MASTER\i2c_master.h ****  *    init_status = DAVE_Init();
1279:C:/c_root/electronics/DAVE_work_2019/pocket-nim/Dave/Generated/I2C_MASTER\i2c_master.h ****  *    if(init_status == DAVE_STATUS_SUCCESS)
1280:C:/c_root/electronics/DAVE_work_2019/pocket-nim/Dave/Generated/I2C_MASTER\i2c_master.h ****  *    {
1281:C:/c_root/electronics/DAVE_work_2019/pocket-nim/Dave/Generated/I2C_MASTER\i2c_master.h ****  *      mem_address[0] = 0x00; //memory which need to be read from slave
1282:C:/c_root/electronics/DAVE_work_2019/pocket-nim/Dave/Generated/I2C_MASTER\i2c_master.h ****  *      //Configure transmit fifo trigger limit as 10
1283:C:/c_root/electronics/DAVE_work_2019/pocket-nim/Dave/Generated/I2C_MASTER\i2c_master.h ****  *      I2C_MASTER_SetTXFIFOTriggerLimit(&I2C_MASTER_0, 16, 10);
1284:C:/c_root/electronics/DAVE_work_2019/pocket-nim/Dave/Generated/I2C_MASTER\i2c_master.h ****  *      I2C_MASTER_StartTransmitIRQ(&I2C_MASTER_0,true,SLAVE_ADDRESS,mem_address,1,false);
1285:C:/c_root/electronics/DAVE_work_2019/pocket-nim/Dave/Generated/I2C_MASTER\i2c_master.h ****  *      while(I2C_MASTER_IsTxBusy(&I2C_MASTER_0));
1286:C:/c_root/electronics/DAVE_work_2019/pocket-nim/Dave/Generated/I2C_MASTER\i2c_master.h ****  *      I2C_MASTER_StartTransmitIRQ(&I2C_MASTER_0,true,SLAVE_ADDRESS,mem_address,16,false);
1287:C:/c_root/electronics/DAVE_work_2019/pocket-nim/Dave/Generated/I2C_MASTER\i2c_master.h ****  *      //Wait for FIFO transmit standard buffer interrupt to fill it again with remaining data
1288:C:/c_root/electronics/DAVE_work_2019/pocket-nim/Dave/Generated/I2C_MASTER\i2c_master.h ****  *      while((I2C_MASTER_GetTXFIFOStatus(&I2C_MASTER_0) & XMC_USIC_CH_TXFIFO_EVENT_STANDARD) == 0)
1289:C:/c_root/electronics/DAVE_work_2019/pocket-nim/Dave/Generated/I2C_MASTER\i2c_master.h ****  *      I2C_MASTER_ClearTXFIFOStatus(&I2C_MASTER_0, XMC_USIC_CH_TXFIFO_EVENT_STANDARD);
1290:C:/c_root/electronics/DAVE_work_2019/pocket-nim/Dave/Generated/I2C_MASTER\i2c_master.h ****  *      I2C_MASTER_StartTransmitIRQ(&I2C_MASTER_0,true,SLAVE_ADDRESS,mem_address,6,false);
1291:C:/c_root/electronics/DAVE_work_2019/pocket-nim/Dave/Generated/I2C_MASTER\i2c_master.h ****  *    }
1292:C:/c_root/electronics/DAVE_work_2019/pocket-nim/Dave/Generated/I2C_MASTER\i2c_master.h ****  *    else
1293:C:/c_root/electronics/DAVE_work_2019/pocket-nim/Dave/Generated/I2C_MASTER\i2c_master.h ****  *    {
1294:C:/c_root/electronics/DAVE_work_2019/pocket-nim/Dave/Generated/I2C_MASTER\i2c_master.h ****  *      XMC_DEBUG("main: Application initialization failed");
1295:C:/c_root/electronics/DAVE_work_2019/pocket-nim/Dave/Generated/I2C_MASTER\i2c_master.h ****  *      while(1U)
1296:C:/c_root/electronics/DAVE_work_2019/pocket-nim/Dave/Generated/I2C_MASTER\i2c_master.h ****  *      {
1297:C:/c_root/electronics/DAVE_work_2019/pocket-nim/Dave/Generated/I2C_MASTER\i2c_master.h ****  *      }
1298:C:/c_root/electronics/DAVE_work_2019/pocket-nim/Dave/Generated/I2C_MASTER\i2c_master.h ****  *    }
1299:C:/c_root/electronics/DAVE_work_2019/pocket-nim/Dave/Generated/I2C_MASTER\i2c_master.h ****  *    return 1U;
1300:C:/c_root/electronics/DAVE_work_2019/pocket-nim/Dave/Generated/I2C_MASTER\i2c_master.h ****  *  }
1301:C:/c_root/electronics/DAVE_work_2019/pocket-nim/Dave/Generated/I2C_MASTER\i2c_master.h ****  * @endcode
1302:C:/c_root/electronics/DAVE_work_2019/pocket-nim/Dave/Generated/I2C_MASTER\i2c_master.h ****  *
1303:C:/c_root/electronics/DAVE_work_2019/pocket-nim/Dave/Generated/I2C_MASTER\i2c_master.h ****  */
1304:C:/c_root/electronics/DAVE_work_2019/pocket-nim/Dave/Generated/I2C_MASTER\i2c_master.h **** __STATIC_INLINE void I2C_MASTER_ClearTXFIFOStatus(const I2C_MASTER_t* const handle, const uint32_t 
1305:C:/c_root/electronics/DAVE_work_2019/pocket-nim/Dave/Generated/I2C_MASTER\i2c_master.h **** {
1306:C:/c_root/electronics/DAVE_work_2019/pocket-nim/Dave/Generated/I2C_MASTER\i2c_master.h ****   XMC_ASSERT("I2C_MASTER_ClearTXFIFOStatus: invalid handle", (handle != NULL))
1307:C:/c_root/electronics/DAVE_work_2019/pocket-nim/Dave/Generated/I2C_MASTER\i2c_master.h ****   XMC_USIC_CH_TXFIFO_ClearEvent(handle->channel, flag);
1308:C:/c_root/electronics/DAVE_work_2019/pocket-nim/Dave/Generated/I2C_MASTER\i2c_master.h **** }
1309:C:/c_root/electronics/DAVE_work_2019/pocket-nim/Dave/Generated/I2C_MASTER\i2c_master.h **** 
1310:C:/c_root/electronics/DAVE_work_2019/pocket-nim/Dave/Generated/I2C_MASTER\i2c_master.h **** /**
1311:C:/c_root/electronics/DAVE_work_2019/pocket-nim/Dave/Generated/I2C_MASTER\i2c_master.h ****  * @brief Function clears the specified FIFO event flag related to receive FIFO. It should be used 
1312:C:/c_root/electronics/DAVE_work_2019/pocket-nim/Dave/Generated/I2C_MASTER\i2c_master.h ****  * of standard receive buffer interrupt, alternative receive buffer interrupt and receive buffer er
1313:C:/c_root/electronics/DAVE_work_2019/pocket-nim/Dave/Generated/I2C_MASTER\i2c_master.h ****  *
1314:C:/c_root/electronics/DAVE_work_2019/pocket-nim/Dave/Generated/I2C_MASTER\i2c_master.h ****  *
1315:C:/c_root/electronics/DAVE_work_2019/pocket-nim/Dave/Generated/I2C_MASTER\i2c_master.h ****  * @param  handle I2C_MASTER APP handle pointer of type @ref I2C_MASTER_t
1316:C:/c_root/electronics/DAVE_work_2019/pocket-nim/Dave/Generated/I2C_MASTER\i2c_master.h ****  * @param  flag Value with event bits at the bit positions in TRBSR register to be cleared.\n
1317:C:/c_root/electronics/DAVE_work_2019/pocket-nim/Dave/Generated/I2C_MASTER\i2c_master.h ****  *             \b Range: Use type @ref XMC_USIC_CH_RXFIFO_EVENT_t for providing events.
1318:C:/c_root/electronics/DAVE_work_2019/pocket-nim/Dave/Generated/I2C_MASTER\i2c_master.h ****  *             Multiple events can be input by using \a OR operation.
1319:C:/c_root/electronics/DAVE_work_2019/pocket-nim/Dave/Generated/I2C_MASTER\i2c_master.h ****  *
1320:C:/c_root/electronics/DAVE_work_2019/pocket-nim/Dave/Generated/I2C_MASTER\i2c_master.h ****  * @return    None
1321:C:/c_root/electronics/DAVE_work_2019/pocket-nim/Dave/Generated/I2C_MASTER\i2c_master.h ****  *
1322:C:/c_root/electronics/DAVE_work_2019/pocket-nim/Dave/Generated/I2C_MASTER\i2c_master.h ****  * \par<b>Description:</b><br>
1323:C:/c_root/electronics/DAVE_work_2019/pocket-nim/Dave/Generated/I2C_MASTER\i2c_master.h ****  * Function clears a status bit in TRBSR using the TRBSCR register.
1324:C:/c_root/electronics/DAVE_work_2019/pocket-nim/Dave/Generated/I2C_MASTER\i2c_master.h ****  * The function does not mask the input value to clear only receive buffer
1325:C:/c_root/electronics/DAVE_work_2019/pocket-nim/Dave/Generated/I2C_MASTER\i2c_master.h ****  * events. So user should appropriately mask the input value before calling
1326:C:/c_root/electronics/DAVE_work_2019/pocket-nim/Dave/Generated/I2C_MASTER\i2c_master.h ****  * the function.
1327:C:/c_root/electronics/DAVE_work_2019/pocket-nim/Dave/Generated/I2C_MASTER\i2c_master.h ****  *
1328:C:/c_root/electronics/DAVE_work_2019/pocket-nim/Dave/Generated/I2C_MASTER\i2c_master.h ****  * Example Usage:
1329:C:/c_root/electronics/DAVE_work_2019/pocket-nim/Dave/Generated/I2C_MASTER\i2c_master.h ****  * @code
1330:C:/c_root/electronics/DAVE_work_2019/pocket-nim/Dave/Generated/I2C_MASTER\i2c_master.h ****  *
1331:C:/c_root/electronics/DAVE_work_2019/pocket-nim/Dave/Generated/I2C_MASTER\i2c_master.h ****  *  #include <DAVE.h>         //Declarations from DAVE Code Generation (includes SFR declaration)
1332:C:/c_root/electronics/DAVE_work_2019/pocket-nim/Dave/Generated/I2C_MASTER\i2c_master.h ****  *  #define SLAVE_ADDRESS 0xA0
1333:C:/c_root/electronics/DAVE_work_2019/pocket-nim/Dave/Generated/I2C_MASTER\i2c_master.h ****  *  uint8_t mem_address[2];
1334:C:/c_root/electronics/DAVE_work_2019/pocket-nim/Dave/Generated/I2C_MASTER\i2c_master.h ****  *  int main(void)
1335:C:/c_root/electronics/DAVE_work_2019/pocket-nim/Dave/Generated/I2C_MASTER\i2c_master.h ****  *  {
1336:C:/c_root/electronics/DAVE_work_2019/pocket-nim/Dave/Generated/I2C_MASTER\i2c_master.h ****  *    DAVE_STATUS_t init_status;
1337:C:/c_root/electronics/DAVE_work_2019/pocket-nim/Dave/Generated/I2C_MASTER\i2c_master.h ****  *
1338:C:/c_root/electronics/DAVE_work_2019/pocket-nim/Dave/Generated/I2C_MASTER\i2c_master.h ****  *    init_status = DAVE_Init();
1339:C:/c_root/electronics/DAVE_work_2019/pocket-nim/Dave/Generated/I2C_MASTER\i2c_master.h ****  *    if(init_status == DAVE_STATUS_SUCCESS)
1340:C:/c_root/electronics/DAVE_work_2019/pocket-nim/Dave/Generated/I2C_MASTER\i2c_master.h ****  *    {
1341:C:/c_root/electronics/DAVE_work_2019/pocket-nim/Dave/Generated/I2C_MASTER\i2c_master.h ****  *      mem_address[0] = 0x00;//memory which need to be read from slave
1342:C:/c_root/electronics/DAVE_work_2019/pocket-nim/Dave/Generated/I2C_MASTER\i2c_master.h ****  *      //Configure receive fifo trigger limit as 10
1343:C:/c_root/electronics/DAVE_work_2019/pocket-nim/Dave/Generated/I2C_MASTER\i2c_master.h ****  *      I2C_MASTER_SetRXFIFOTriggerLimit(&I2C_MASTER_0, 16, 10);
1344:C:/c_root/electronics/DAVE_work_2019/pocket-nim/Dave/Generated/I2C_MASTER\i2c_master.h ****  *      I2C_MASTER_StartTransmitIRQ(&I2C_MASTER_0,true,SLAVE_ADDRESS,mem_address,1,false);
1345:C:/c_root/electronics/DAVE_work_2019/pocket-nim/Dave/Generated/I2C_MASTER\i2c_master.h ****  *      while(I2C_MASTER_IsTxBusy(&I2C_MASTER_0));
1346:C:/c_root/electronics/DAVE_work_2019/pocket-nim/Dave/Generated/I2C_MASTER\i2c_master.h ****  *      I2C_MASTER_StartReceiveIRQ(&I2C_MASTER_0,true,SLAVE_ADDRESS,mem_address,16,true, true);
1347:C:/c_root/electronics/DAVE_work_2019/pocket-nim/Dave/Generated/I2C_MASTER\i2c_master.h ****  *      //Wait for FIFO transmit standard buffer interrupt to fill it again with remaining data
1348:C:/c_root/electronics/DAVE_work_2019/pocket-nim/Dave/Generated/I2C_MASTER\i2c_master.h ****  *      while((I2C_MASTER_GetRXFIFOStatus(&I2C_MASTER_0) & XMC_USIC_CH_RXFIFO_EVENT_STANDARD) == 0)
1349:C:/c_root/electronics/DAVE_work_2019/pocket-nim/Dave/Generated/I2C_MASTER\i2c_master.h ****  *      I2C_MASTER_ClearRXFIFOStatus(&I2C_MASTER_0, XMC_USIC_CH_RXFIFO_EVENT_STANDARD);
1350:C:/c_root/electronics/DAVE_work_2019/pocket-nim/Dave/Generated/I2C_MASTER\i2c_master.h ****  *      I2C_MASTER_StartReceiveIRQ(&I2C_MASTER_0,true,SLAVE_ADDRESS,mem_address,6,false, false);
1351:C:/c_root/electronics/DAVE_work_2019/pocket-nim/Dave/Generated/I2C_MASTER\i2c_master.h ****  *    }
1352:C:/c_root/electronics/DAVE_work_2019/pocket-nim/Dave/Generated/I2C_MASTER\i2c_master.h ****  *    else
1353:C:/c_root/electronics/DAVE_work_2019/pocket-nim/Dave/Generated/I2C_MASTER\i2c_master.h ****  *    {
1354:C:/c_root/electronics/DAVE_work_2019/pocket-nim/Dave/Generated/I2C_MASTER\i2c_master.h ****  *      XMC_DEBUG("main: Application initialization failed");
1355:C:/c_root/electronics/DAVE_work_2019/pocket-nim/Dave/Generated/I2C_MASTER\i2c_master.h ****  *      while(1U)
1356:C:/c_root/electronics/DAVE_work_2019/pocket-nim/Dave/Generated/I2C_MASTER\i2c_master.h ****  *      {
1357:C:/c_root/electronics/DAVE_work_2019/pocket-nim/Dave/Generated/I2C_MASTER\i2c_master.h ****  *      }
1358:C:/c_root/electronics/DAVE_work_2019/pocket-nim/Dave/Generated/I2C_MASTER\i2c_master.h ****  *    }
1359:C:/c_root/electronics/DAVE_work_2019/pocket-nim/Dave/Generated/I2C_MASTER\i2c_master.h ****  *    return 1U;
1360:C:/c_root/electronics/DAVE_work_2019/pocket-nim/Dave/Generated/I2C_MASTER\i2c_master.h ****  *  }
1361:C:/c_root/electronics/DAVE_work_2019/pocket-nim/Dave/Generated/I2C_MASTER\i2c_master.h ****  * @endcode
1362:C:/c_root/electronics/DAVE_work_2019/pocket-nim/Dave/Generated/I2C_MASTER\i2c_master.h ****  *
1363:C:/c_root/electronics/DAVE_work_2019/pocket-nim/Dave/Generated/I2C_MASTER\i2c_master.h ****  */
1364:C:/c_root/electronics/DAVE_work_2019/pocket-nim/Dave/Generated/I2C_MASTER\i2c_master.h **** __STATIC_INLINE void I2C_MASTER_ClearRXFIFOStatus(const I2C_MASTER_t* const handle, const uint32_t 
1365:C:/c_root/electronics/DAVE_work_2019/pocket-nim/Dave/Generated/I2C_MASTER\i2c_master.h **** {
1366:C:/c_root/electronics/DAVE_work_2019/pocket-nim/Dave/Generated/I2C_MASTER\i2c_master.h ****   XMC_ASSERT("I2C_MASTER_ClearRXFIFOStatus: invalid handle", (handle != NULL))
1367:C:/c_root/electronics/DAVE_work_2019/pocket-nim/Dave/Generated/I2C_MASTER\i2c_master.h ****   XMC_USIC_CH_RXFIFO_ClearEvent(handle->channel, flag);
1368:C:/c_root/electronics/DAVE_work_2019/pocket-nim/Dave/Generated/I2C_MASTER\i2c_master.h **** }
1369:C:/c_root/electronics/DAVE_work_2019/pocket-nim/Dave/Generated/I2C_MASTER\i2c_master.h **** 
1370:C:/c_root/electronics/DAVE_work_2019/pocket-nim/Dave/Generated/I2C_MASTER\i2c_master.h **** /**
1371:C:/c_root/electronics/DAVE_work_2019/pocket-nim/Dave/Generated/I2C_MASTER\i2c_master.h ****  * @brief Provides the received data from receive buffer.
1372:C:/c_root/electronics/DAVE_work_2019/pocket-nim/Dave/Generated/I2C_MASTER\i2c_master.h ****  *
1373:C:/c_root/electronics/DAVE_work_2019/pocket-nim/Dave/Generated/I2C_MASTER\i2c_master.h ****  * @param  handle I2C_MASTER APP handle pointer of type @ref I2C_MASTER_t
1374:C:/c_root/electronics/DAVE_work_2019/pocket-nim/Dave/Generated/I2C_MASTER\i2c_master.h ****  * @return uint8_t: Data read from RBUF.\n
1375:C:/c_root/electronics/DAVE_work_2019/pocket-nim/Dave/Generated/I2C_MASTER\i2c_master.h ****  *
1376:C:/c_root/electronics/DAVE_work_2019/pocket-nim/Dave/Generated/I2C_MASTER\i2c_master.h ****  * \par<b>Description:</b><br>
1377:C:/c_root/electronics/DAVE_work_2019/pocket-nim/Dave/Generated/I2C_MASTER\i2c_master.h ****  * This can be used in receive mode "Direct" to read the received data.
1378:C:/c_root/electronics/DAVE_work_2019/pocket-nim/Dave/Generated/I2C_MASTER\i2c_master.h ****  * If Rx FIFO is not configured, function reads the value of RBUF register.
1379:C:/c_root/electronics/DAVE_work_2019/pocket-nim/Dave/Generated/I2C_MASTER\i2c_master.h ****  * Otherwise it reads the data from OUTR register.
1380:C:/c_root/electronics/DAVE_work_2019/pocket-nim/Dave/Generated/I2C_MASTER\i2c_master.h ****  * Example Usage:
1381:C:/c_root/electronics/DAVE_work_2019/pocket-nim/Dave/Generated/I2C_MASTER\i2c_master.h ****  * @code
1382:C:/c_root/electronics/DAVE_work_2019/pocket-nim/Dave/Generated/I2C_MASTER\i2c_master.h ****  *
1383:C:/c_root/electronics/DAVE_work_2019/pocket-nim/Dave/Generated/I2C_MASTER\i2c_master.h ****  *  #include <DAVE.h>         //Declarations from DAVE Code Generation (includes SFR declaration)
1384:C:/c_root/electronics/DAVE_work_2019/pocket-nim/Dave/Generated/I2C_MASTER\i2c_master.h ****  *  #define SLAVE_ADDRESS 0xA0
1385:C:/c_root/electronics/DAVE_work_2019/pocket-nim/Dave/Generated/I2C_MASTER\i2c_master.h ****  *  int main(void)
1386:C:/c_root/electronics/DAVE_work_2019/pocket-nim/Dave/Generated/I2C_MASTER\i2c_master.h ****  *  {
1387:C:/c_root/electronics/DAVE_work_2019/pocket-nim/Dave/Generated/I2C_MASTER\i2c_master.h ****  *    DAVE_STATUS_t init_status;
1388:C:/c_root/electronics/DAVE_work_2019/pocket-nim/Dave/Generated/I2C_MASTER\i2c_master.h ****  *    uint8_t rec_data[10];
1389:C:/c_root/electronics/DAVE_work_2019/pocket-nim/Dave/Generated/I2C_MASTER\i2c_master.h ****  *    uint8_t index = 0,loc_index = 0;
1390:C:/c_root/electronics/DAVE_work_2019/pocket-nim/Dave/Generated/I2C_MASTER\i2c_master.h ****  *
1391:C:/c_root/electronics/DAVE_work_2019/pocket-nim/Dave/Generated/I2C_MASTER\i2c_master.h ****  *    init_status = DAVE_Init();
1392:C:/c_root/electronics/DAVE_work_2019/pocket-nim/Dave/Generated/I2C_MASTER\i2c_master.h ****  *    if(init_status == DAVE_STATUS_SUCCESS)
1393:C:/c_root/electronics/DAVE_work_2019/pocket-nim/Dave/Generated/I2C_MASTER\i2c_master.h ****  *    {
1394:C:/c_root/electronics/DAVE_work_2019/pocket-nim/Dave/Generated/I2C_MASTER\i2c_master.h ****  *      I2C_MASTER_SendStart(&I2C_MASTER_0, SLAVE_ADDRESS, XMC_I2C_CH_CMD_WRITE);
1395:C:/c_root/electronics/DAVE_work_2019/pocket-nim/Dave/Generated/I2C_MASTER\i2c_master.h ****  *      while(I2C_MASTER_GetFlagStatus(&I2C_MASTER_0, XMC_I2C_CH_STATUS_FLAG_ACK_RECEIVED) == 0U)
1396:C:/c_root/electronics/DAVE_work_2019/pocket-nim/Dave/Generated/I2C_MASTER\i2c_master.h ****  *      {
1397:C:/c_root/electronics/DAVE_work_2019/pocket-nim/Dave/Generated/I2C_MASTER\i2c_master.h ****  *       // wait for ACK
1398:C:/c_root/electronics/DAVE_work_2019/pocket-nim/Dave/Generated/I2C_MASTER\i2c_master.h ****  *      }
1399:C:/c_root/electronics/DAVE_work_2019/pocket-nim/Dave/Generated/I2C_MASTER\i2c_master.h ****  *      I2C_MASTER_ClearFlag(&I2C_MASTER_0,XMC_I2C_CH_STATUS_FLAG_ACK_RECEIVED);
1400:C:/c_root/electronics/DAVE_work_2019/pocket-nim/Dave/Generated/I2C_MASTER\i2c_master.h ****  *      // write to address 0
1401:C:/c_root/electronics/DAVE_work_2019/pocket-nim/Dave/Generated/I2C_MASTER\i2c_master.h ****  *      I2C_MASTER_TransmitByte(&I2C_MASTER_0, 0x00);
1402:C:/c_root/electronics/DAVE_work_2019/pocket-nim/Dave/Generated/I2C_MASTER\i2c_master.h ****  *      while(I2C_MASTER_GetFlagStatus(&I2C_MASTER_0, XMC_I2C_CH_STATUS_FLAG_ACK_RECEIVED) == 0U)
1403:C:/c_root/electronics/DAVE_work_2019/pocket-nim/Dave/Generated/I2C_MASTER\i2c_master.h ****  *      {
1404:C:/c_root/electronics/DAVE_work_2019/pocket-nim/Dave/Generated/I2C_MASTER\i2c_master.h ****  *       // wait for ACK
1405:C:/c_root/electronics/DAVE_work_2019/pocket-nim/Dave/Generated/I2C_MASTER\i2c_master.h ****  *      }
1406:C:/c_root/electronics/DAVE_work_2019/pocket-nim/Dave/Generated/I2C_MASTER\i2c_master.h ****  *      I2C_MASTER_ClearFlag(&I2C_MASTER_0,XMC_I2C_CH_STATUS_FLAG_ACK_RECEIVED);
1407:C:/c_root/electronics/DAVE_work_2019/pocket-nim/Dave/Generated/I2C_MASTER\i2c_master.h ****  *      I2C_MASTER_SendRepeatedStart(&I2C_MASTER_0, SLAVE_ADDRESS, XMC_I2C_CH_CMD_READ);
1408:C:/c_root/electronics/DAVE_work_2019/pocket-nim/Dave/Generated/I2C_MASTER\i2c_master.h ****  *      while(I2C_MASTER_GetFlagStatus(&I2C_MASTER_0, XMC_I2C_CH_STATUS_FLAG_ACK_RECEIVED) == 0U)
1409:C:/c_root/electronics/DAVE_work_2019/pocket-nim/Dave/Generated/I2C_MASTER\i2c_master.h ****  *      {
1410:C:/c_root/electronics/DAVE_work_2019/pocket-nim/Dave/Generated/I2C_MASTER\i2c_master.h ****  *        // wait for ACK
1411:C:/c_root/electronics/DAVE_work_2019/pocket-nim/Dave/Generated/I2C_MASTER\i2c_master.h ****  *      }
1412:C:/c_root/electronics/DAVE_work_2019/pocket-nim/Dave/Generated/I2C_MASTER\i2c_master.h ****  *      I2C_MASTER_ClearFlag(&I2C_MASTER_0,XMC_I2C_CH_STATUS_FLAG_ACK_RECEIVED);
1413:C:/c_root/electronics/DAVE_work_2019/pocket-nim/Dave/Generated/I2C_MASTER\i2c_master.h ****  *      while(index < 16)
1414:C:/c_root/electronics/DAVE_work_2019/pocket-nim/Dave/Generated/I2C_MASTER\i2c_master.h ****  *      {
1415:C:/c_root/electronics/DAVE_work_2019/pocket-nim/Dave/Generated/I2C_MASTER\i2c_master.h ****  *        I2C_MASTER_ReceiveACK(&I2C_MASTER_0);
1416:C:/c_root/electronics/DAVE_work_2019/pocket-nim/Dave/Generated/I2C_MASTER\i2c_master.h ****  *         index++;
1417:C:/c_root/electronics/DAVE_work_2019/pocket-nim/Dave/Generated/I2C_MASTER\i2c_master.h ****  *      }
1418:C:/c_root/electronics/DAVE_work_2019/pocket-nim/Dave/Generated/I2C_MASTER\i2c_master.h ****  *      //Wait when Rx FIFO is empty
1419:C:/c_root/electronics/DAVE_work_2019/pocket-nim/Dave/Generated/I2C_MASTER\i2c_master.h ****  *      while(!I2C_MASTER_IsRXFIFOEmpty(&I2C_MASTER_0))
1420:C:/c_root/electronics/DAVE_work_2019/pocket-nim/Dave/Generated/I2C_MASTER\i2c_master.h ****  *      {
1421:C:/c_root/electronics/DAVE_work_2019/pocket-nim/Dave/Generated/I2C_MASTER\i2c_master.h ****  *        rec_data[loc_index++] = I2C_MASTER_GetReceivedByte(&I2C_MASTER_0);
1422:C:/c_root/electronics/DAVE_work_2019/pocket-nim/Dave/Generated/I2C_MASTER\i2c_master.h ****  *      }
1423:C:/c_root/electronics/DAVE_work_2019/pocket-nim/Dave/Generated/I2C_MASTER\i2c_master.h ****  *    }
1424:C:/c_root/electronics/DAVE_work_2019/pocket-nim/Dave/Generated/I2C_MASTER\i2c_master.h ****  *    else
1425:C:/c_root/electronics/DAVE_work_2019/pocket-nim/Dave/Generated/I2C_MASTER\i2c_master.h ****  *    {
1426:C:/c_root/electronics/DAVE_work_2019/pocket-nim/Dave/Generated/I2C_MASTER\i2c_master.h ****  *      XMC_DEBUG("main: Application initialization failed");
1427:C:/c_root/electronics/DAVE_work_2019/pocket-nim/Dave/Generated/I2C_MASTER\i2c_master.h ****  *      while(1U)
1428:C:/c_root/electronics/DAVE_work_2019/pocket-nim/Dave/Generated/I2C_MASTER\i2c_master.h ****  *      {
1429:C:/c_root/electronics/DAVE_work_2019/pocket-nim/Dave/Generated/I2C_MASTER\i2c_master.h ****  *      }
1430:C:/c_root/electronics/DAVE_work_2019/pocket-nim/Dave/Generated/I2C_MASTER\i2c_master.h ****  *    }
1431:C:/c_root/electronics/DAVE_work_2019/pocket-nim/Dave/Generated/I2C_MASTER\i2c_master.h ****  *    return 1U;
1432:C:/c_root/electronics/DAVE_work_2019/pocket-nim/Dave/Generated/I2C_MASTER\i2c_master.h ****  *  }
1433:C:/c_root/electronics/DAVE_work_2019/pocket-nim/Dave/Generated/I2C_MASTER\i2c_master.h ****  * @endcode
1434:C:/c_root/electronics/DAVE_work_2019/pocket-nim/Dave/Generated/I2C_MASTER\i2c_master.h ****  *
1435:C:/c_root/electronics/DAVE_work_2019/pocket-nim/Dave/Generated/I2C_MASTER\i2c_master.h ****  */
1436:C:/c_root/electronics/DAVE_work_2019/pocket-nim/Dave/Generated/I2C_MASTER\i2c_master.h **** /* Wrapper to the LLD API for reading back the value of the RBUF or OUTR register */
1437:C:/c_root/electronics/DAVE_work_2019/pocket-nim/Dave/Generated/I2C_MASTER\i2c_master.h **** __STATIC_INLINE uint8_t I2C_MASTER_GetReceivedByte(I2C_MASTER_t * const handle)
1438:C:/c_root/electronics/DAVE_work_2019/pocket-nim/Dave/Generated/I2C_MASTER\i2c_master.h **** {
1439:C:/c_root/electronics/DAVE_work_2019/pocket-nim/Dave/Generated/I2C_MASTER\i2c_master.h ****   XMC_ASSERT("I2C_MASTER_GetReceivedByte: invalid handle", (handle != NULL))
1440:C:/c_root/electronics/DAVE_work_2019/pocket-nim/Dave/Generated/I2C_MASTER\i2c_master.h ****   return (uint8_t)XMC_I2C_CH_GetReceivedData(handle->channel);
1441:C:/c_root/electronics/DAVE_work_2019/pocket-nim/Dave/Generated/I2C_MASTER\i2c_master.h **** }
1442:C:/c_root/electronics/DAVE_work_2019/pocket-nim/Dave/Generated/I2C_MASTER\i2c_master.h **** 
1443:C:/c_root/electronics/DAVE_work_2019/pocket-nim/Dave/Generated/I2C_MASTER\i2c_master.h **** /**
1444:C:/c_root/electronics/DAVE_work_2019/pocket-nim/Dave/Generated/I2C_MASTER\i2c_master.h ****  * @brief Transmits single byte using I2C protocol.
1445:C:/c_root/electronics/DAVE_work_2019/pocket-nim/Dave/Generated/I2C_MASTER\i2c_master.h ****  *
1446:C:/c_root/electronics/DAVE_work_2019/pocket-nim/Dave/Generated/I2C_MASTER\i2c_master.h ****  * @param  handle I2C_MASTER APP handle pointer of type @ref I2C_MASTER_t
1447:C:/c_root/electronics/DAVE_work_2019/pocket-nim/Dave/Generated/I2C_MASTER\i2c_master.h ****  * @param  byte data byte to transmit. \n
1448:C:/c_root/electronics/DAVE_work_2019/pocket-nim/Dave/Generated/I2C_MASTER\i2c_master.h ****  * @return None\n
1449:C:/c_root/electronics/DAVE_work_2019/pocket-nim/Dave/Generated/I2C_MASTER\i2c_master.h ****  * 
1450:C:/c_root/electronics/DAVE_work_2019/pocket-nim/Dave/Generated/I2C_MASTER\i2c_master.h ****  * Example Usage:
1451:C:/c_root/electronics/DAVE_work_2019/pocket-nim/Dave/Generated/I2C_MASTER\i2c_master.h ****  *
1452:C:/c_root/electronics/DAVE_work_2019/pocket-nim/Dave/Generated/I2C_MASTER\i2c_master.h ****  * @code
1453:C:/c_root/electronics/DAVE_work_2019/pocket-nim/Dave/Generated/I2C_MASTER\i2c_master.h ****  *
1454:C:/c_root/electronics/DAVE_work_2019/pocket-nim/Dave/Generated/I2C_MASTER\i2c_master.h ****  *  #include <DAVE.h>                 //Declarations from DAVE Code Generation (includes SFR declar
1455:C:/c_root/electronics/DAVE_work_2019/pocket-nim/Dave/Generated/I2C_MASTER\i2c_master.h ****  *  #define SLAVE_ADDRESS 0xA0
1456:C:/c_root/electronics/DAVE_work_2019/pocket-nim/Dave/Generated/I2C_MASTER\i2c_master.h ****  *
1457:C:/c_root/electronics/DAVE_work_2019/pocket-nim/Dave/Generated/I2C_MASTER\i2c_master.h ****  *  int main(void)
1458:C:/c_root/electronics/DAVE_work_2019/pocket-nim/Dave/Generated/I2C_MASTER\i2c_master.h ****  *  {
1459:C:/c_root/electronics/DAVE_work_2019/pocket-nim/Dave/Generated/I2C_MASTER\i2c_master.h ****  *    DAVE_STATUS_t status;
1460:C:/c_root/electronics/DAVE_work_2019/pocket-nim/Dave/Generated/I2C_MASTER\i2c_master.h ****  *
1461:C:/c_root/electronics/DAVE_work_2019/pocket-nim/Dave/Generated/I2C_MASTER\i2c_master.h ****  *    status = DAVE_Init();
1462:C:/c_root/electronics/DAVE_work_2019/pocket-nim/Dave/Generated/I2C_MASTER\i2c_master.h ****  *
1463:C:/c_root/electronics/DAVE_work_2019/pocket-nim/Dave/Generated/I2C_MASTER\i2c_master.h ****  *    if(status == DAVE_STATUS_FAILURE)
1464:C:/c_root/electronics/DAVE_work_2019/pocket-nim/Dave/Generated/I2C_MASTER\i2c_master.h ****  *    {
1465:C:/c_root/electronics/DAVE_work_2019/pocket-nim/Dave/Generated/I2C_MASTER\i2c_master.h ****  *      XMC_DEBUG("DAVE APPs initialization failed\n");
1466:C:/c_root/electronics/DAVE_work_2019/pocket-nim/Dave/Generated/I2C_MASTER\i2c_master.h ****  *
1467:C:/c_root/electronics/DAVE_work_2019/pocket-nim/Dave/Generated/I2C_MASTER\i2c_master.h ****  *      while(1U)
1468:C:/c_root/electronics/DAVE_work_2019/pocket-nim/Dave/Generated/I2C_MASTER\i2c_master.h ****  *      {
1469:C:/c_root/electronics/DAVE_work_2019/pocket-nim/Dave/Generated/I2C_MASTER\i2c_master.h ****  *
1470:C:/c_root/electronics/DAVE_work_2019/pocket-nim/Dave/Generated/I2C_MASTER\i2c_master.h ****  *      }
1471:C:/c_root/electronics/DAVE_work_2019/pocket-nim/Dave/Generated/I2C_MASTER\i2c_master.h ****  *    }
1472:C:/c_root/electronics/DAVE_work_2019/pocket-nim/Dave/Generated/I2C_MASTER\i2c_master.h ****  *    I2C_MASTER_SendStart(&I2C_MASTER_0, SLAVE_ADDRESS, XMC_I2C_CH_CMD_WRITE);
1473:C:/c_root/electronics/DAVE_work_2019/pocket-nim/Dave/Generated/I2C_MASTER\i2c_master.h ****  *    while(I2C_MASTER_GetFlagStatus(&I2C_MASTER_0, XMC_I2C_CH_STATUS_FLAG_ACK_RECEIVED) == 0U)
1474:C:/c_root/electronics/DAVE_work_2019/pocket-nim/Dave/Generated/I2C_MASTER\i2c_master.h ****  *    {
1475:C:/c_root/electronics/DAVE_work_2019/pocket-nim/Dave/Generated/I2C_MASTER\i2c_master.h ****  *      // wait for ACK
1476:C:/c_root/electronics/DAVE_work_2019/pocket-nim/Dave/Generated/I2C_MASTER\i2c_master.h ****  *    }
1477:C:/c_root/electronics/DAVE_work_2019/pocket-nim/Dave/Generated/I2C_MASTER\i2c_master.h ****  *    I2C_MASTER_ClearFlag(&I2C_MASTER_0,XMC_I2C_CH_STATUS_FLAG_ACK_RECEIVED);
1478:C:/c_root/electronics/DAVE_work_2019/pocket-nim/Dave/Generated/I2C_MASTER\i2c_master.h ****  *    I2C_MASTER_TransmitByte(&I2C_MASTER_0, 0x00);
1479:C:/c_root/electronics/DAVE_work_2019/pocket-nim/Dave/Generated/I2C_MASTER\i2c_master.h ****  *    while(I2C_MASTER_GetFlagStatus(&I2C_MASTER_0, XMC_I2C_CH_STATUS_FLAG_ACK_RECEIVED) == 0U)
1480:C:/c_root/electronics/DAVE_work_2019/pocket-nim/Dave/Generated/I2C_MASTER\i2c_master.h ****  *    {
1481:C:/c_root/electronics/DAVE_work_2019/pocket-nim/Dave/Generated/I2C_MASTER\i2c_master.h ****  *      // wait for ACK
1482:C:/c_root/electronics/DAVE_work_2019/pocket-nim/Dave/Generated/I2C_MASTER\i2c_master.h ****  *    }
1483:C:/c_root/electronics/DAVE_work_2019/pocket-nim/Dave/Generated/I2C_MASTER\i2c_master.h ****  *    I2C_MASTER_ClearFlag(&I2C_MASTER_0,XMC_I2C_CH_STATUS_FLAG_ACK_RECEIVED);
1484:C:/c_root/electronics/DAVE_work_2019/pocket-nim/Dave/Generated/I2C_MASTER\i2c_master.h ****  *    while(1U)
1485:C:/c_root/electronics/DAVE_work_2019/pocket-nim/Dave/Generated/I2C_MASTER\i2c_master.h ****  *    {
1486:C:/c_root/electronics/DAVE_work_2019/pocket-nim/Dave/Generated/I2C_MASTER\i2c_master.h ****  *    }
1487:C:/c_root/electronics/DAVE_work_2019/pocket-nim/Dave/Generated/I2C_MASTER\i2c_master.h ****  *  }
1488:C:/c_root/electronics/DAVE_work_2019/pocket-nim/Dave/Generated/I2C_MASTER\i2c_master.h ****  * @endcode
1489:C:/c_root/electronics/DAVE_work_2019/pocket-nim/Dave/Generated/I2C_MASTER\i2c_master.h ****  */
