   1              	 .cpu cortex-m0
   2              	 .fpu softvfp
   3              	 .eabi_attribute 20,1
   4              	 .eabi_attribute 21,1
   5              	 .eabi_attribute 23,3
   6              	 .eabi_attribute 24,1
   7              	 .eabi_attribute 25,1
   8              	 .eabi_attribute 26,1
   9              	 .eabi_attribute 30,6
  10              	 .eabi_attribute 34,0
  11              	 .eabi_attribute 18,4
  12              	 .code 16
  13              	 .file "DAVE.c"
  14              	 .text
  15              	.Ltext0:
  16              	 .cfi_sections .debug_frame
  17              	 .section .text.DAVE_Init,"ax",%progbits
  18              	 .align 2
  19              	 .global DAVE_Init
  20              	 .code 16
  21              	 .thumb_func
  23              	DAVE_Init:
  24              	.LFB197:
  25              	 .file 1 "../Dave/Generated/DAVE.c"
   1:../Dave/Generated/DAVE.c **** 
   2:../Dave/Generated/DAVE.c **** /**
   3:../Dave/Generated/DAVE.c ****  * @cond
   4:../Dave/Generated/DAVE.c ****  **************************************************************************************************
   5:../Dave/Generated/DAVE.c ****  *
   6:../Dave/Generated/DAVE.c ****  * Copyright (c) 2015, Infineon Technologies AG
   7:../Dave/Generated/DAVE.c ****  * All rights reserved.
   8:../Dave/Generated/DAVE.c ****  *
   9:../Dave/Generated/DAVE.c ****  * Redistribution and use in source and binary forms, with or without modification,are permitted pr
  10:../Dave/Generated/DAVE.c ****  * following conditions are met:
  11:../Dave/Generated/DAVE.c ****  *
  12:../Dave/Generated/DAVE.c ****  *   Redistributions of source code must retain the above copyright notice, this list of conditions
  13:../Dave/Generated/DAVE.c ****  *   disclaimer.
  14:../Dave/Generated/DAVE.c ****  *
  15:../Dave/Generated/DAVE.c ****  *   Redistributions in binary form must reproduce the above copyright notice, this list of conditi
  16:../Dave/Generated/DAVE.c ****  *   following disclaimer in the documentation and/or other materials provided with the distributio
  17:../Dave/Generated/DAVE.c ****  *
  18:../Dave/Generated/DAVE.c ****  *   Neither the name of the copyright holders nor the names of its contributors may be used to end
  19:../Dave/Generated/DAVE.c ****  *   products derived from this software without specific prior written permission.
  20:../Dave/Generated/DAVE.c ****  *
  21:../Dave/Generated/DAVE.c ****  * THIS SOFTWARE IS PROVIDED BY THE COPYRIGHT HOLDERS AND CONTRIBUTORS "AS IS" AND ANY EXPRESS OR I
  22:../Dave/Generated/DAVE.c ****  * INCLUDING, BUT NOT LIMITED TO, THE IMPLIED WARRANTIES OF MERCHANTABILITY AND FITNESS FOR A PARTI
  23:../Dave/Generated/DAVE.c ****  * DISCLAIMED. IN NO EVENT SHALL THE COPYRIGHT HOLDER OR CONTRIBUTORS BE LIABLE  FOR ANY DIRECT, IN
  24:../Dave/Generated/DAVE.c ****  * SPECIAL, EXEMPLARY, OR CONSEQUENTIAL DAMAGES (INCLUDING, BUT NOT LIMITED TO, PROCUREMENT OF SUBS
  25:../Dave/Generated/DAVE.c ****  * SERVICES; LOSS OF USE, DATA, OR PROFITS; OR BUSINESS INTERRUPTION) HOWEVER CAUSED AND ON ANY THE
  26:../Dave/Generated/DAVE.c ****  * WHETHER IN CONTRACT, STRICT LIABILITY,OR TORT (INCLUDING NEGLIGENCE OR OTHERWISE) ARISING IN ANY
  27:../Dave/Generated/DAVE.c ****  * USE OF THIS SOFTWARE, EVEN IF ADVISED OF THE POSSIBILITY OF SUCH DAMAGE.
  28:../Dave/Generated/DAVE.c ****  *
  29:../Dave/Generated/DAVE.c ****  * To improve the quality of the software, users are encouraged to share modifications, enhancement
  30:../Dave/Generated/DAVE.c ****  * with Infineon Technologies AG (dave@infineon.com).
  31:../Dave/Generated/DAVE.c ****  **************************************************************************************************
  32:../Dave/Generated/DAVE.c ****  *
  33:../Dave/Generated/DAVE.c ****  * Change History
  34:../Dave/Generated/DAVE.c ****  * --------------
  35:../Dave/Generated/DAVE.c ****  *
  36:../Dave/Generated/DAVE.c ****  * 2014-06-16:
  37:../Dave/Generated/DAVE.c ****  *     - Initial version<br>
  38:../Dave/Generated/DAVE.c ****  * 2015-08-28:
  39:../Dave/Generated/DAVE.c ****  *     - Added CLOCK_XMC1_Init conditionally
  40:../Dave/Generated/DAVE.c ****  *
  41:../Dave/Generated/DAVE.c ****  * @endcond
  42:../Dave/Generated/DAVE.c ****  *
  43:../Dave/Generated/DAVE.c ****  */
  44:../Dave/Generated/DAVE.c **** 
  45:../Dave/Generated/DAVE.c **** /**************************************************************************************************
  46:../Dave/Generated/DAVE.c ****  * HEADER FILES
  47:../Dave/Generated/DAVE.c ****  **************************************************************************************************
  48:../Dave/Generated/DAVE.c **** #include "DAVE.h"
  49:../Dave/Generated/DAVE.c **** 
  50:../Dave/Generated/DAVE.c **** /**************************************************************************************************
  51:../Dave/Generated/DAVE.c ****  * API IMPLEMENTATION
  52:../Dave/Generated/DAVE.c ****  **************************************************************************************************
  53:../Dave/Generated/DAVE.c **** 
  54:../Dave/Generated/DAVE.c **** /*******************************************************************************
  55:../Dave/Generated/DAVE.c ****  * @brief This function initializes the APPs Init Functions.
  56:../Dave/Generated/DAVE.c ****  *
  57:../Dave/Generated/DAVE.c ****  * @param[in]  None
  58:../Dave/Generated/DAVE.c ****  *
  59:../Dave/Generated/DAVE.c ****  * @return  DAVE_STATUS_t <BR>
  60:../Dave/Generated/DAVE.c ****  ******************************************************************************/
  61:../Dave/Generated/DAVE.c **** DAVE_STATUS_t DAVE_Init(void)
  62:../Dave/Generated/DAVE.c **** {
  26              	 .loc 1 62 0
  27              	 .cfi_startproc
  28 0000 90B5     	 push {r4,r7,lr}
  29              	.LCFI0:
  30              	 .cfi_def_cfa_offset 12
  31              	 .cfi_offset 4,-12
  32              	 .cfi_offset 7,-8
  33              	 .cfi_offset 14,-4
  34 0002 83B0     	 sub sp,sp,#12
  35              	.LCFI1:
  36              	 .cfi_def_cfa_offset 24
  37 0004 00AF     	 add r7,sp,#0
  38              	.LCFI2:
  39              	 .cfi_def_cfa_register 7
  63:../Dave/Generated/DAVE.c ****   DAVE_STATUS_t init_status;
  64:../Dave/Generated/DAVE.c ****   
  65:../Dave/Generated/DAVE.c ****   init_status = DAVE_STATUS_SUCCESS;
  40              	 .loc 1 65 0
  41 0006 FB1D     	 add r3,r7,#7
  42 0008 0022     	 mov r2,#0
  43 000a 1A70     	 strb r2,[r3]
  66:../Dave/Generated/DAVE.c ****      /** @Initialization of APPs Init Functions */
  67:../Dave/Generated/DAVE.c ****      init_status = (DAVE_STATUS_t)CLOCK_XMC1_Init(&CLOCK_XMC1_0);
  44              	 .loc 1 67 0
  45 000c FC1D     	 add r4,r7,#7
  46 000e 3D4B     	 ldr r3,.L13
  47 0010 181C     	 mov r0,r3
  48 0012 FFF7FEFF 	 bl CLOCK_XMC1_Init
  49 0016 031C     	 mov r3,r0
  50 0018 2370     	 strb r3,[r4]
  68:../Dave/Generated/DAVE.c **** 
  69:../Dave/Generated/DAVE.c ****   if (init_status == DAVE_STATUS_SUCCESS)
  51              	 .loc 1 69 0
  52 001a FB1D     	 add r3,r7,#7
  53 001c 1B78     	 ldrb r3,[r3]
  54 001e 002B     	 cmp r3,#0
  55 0020 06D1     	 bne .L2
  70:../Dave/Generated/DAVE.c ****   {
  71:../Dave/Generated/DAVE.c **** 	 /**  Initialization of I2C_MASTER APP instance i2c_bus */
  72:../Dave/Generated/DAVE.c **** 	 init_status = (DAVE_STATUS_t)I2C_MASTER_Init(&i2c_bus); 
  56              	 .loc 1 72 0
  57 0022 FC1D     	 add r4,r7,#7
  58 0024 384B     	 ldr r3,.L13+4
  59 0026 181C     	 mov r0,r3
  60 0028 FFF7FEFF 	 bl I2C_MASTER_Init
  61 002c 031C     	 mov r3,r0
  62 002e 2370     	 strb r3,[r4]
  63              	.L2:
  73:../Dave/Generated/DAVE.c ****    } 
  74:../Dave/Generated/DAVE.c ****   if (init_status == DAVE_STATUS_SUCCESS)
  64              	 .loc 1 74 0
  65 0030 FB1D     	 add r3,r7,#7
  66 0032 1B78     	 ldrb r3,[r3]
  67 0034 002B     	 cmp r3,#0
  68 0036 06D1     	 bne .L3
  75:../Dave/Generated/DAVE.c ****   {
  76:../Dave/Generated/DAVE.c **** 	 /**  Initialization of SYSTIMER APP instance sys_timer */
  77:../Dave/Generated/DAVE.c **** 	 init_status = (DAVE_STATUS_t)SYSTIMER_Init(&sys_timer); 
  69              	 .loc 1 77 0
  70 0038 FC1D     	 add r4,r7,#7
  71 003a 344B     	 ldr r3,.L13+8
  72 003c 181C     	 mov r0,r3
  73 003e FFF7FEFF 	 bl SYSTIMER_Init
  74 0042 031C     	 mov r3,r0
  75 0044 2370     	 strb r3,[r4]
  76              	.L3:
  78:../Dave/Generated/DAVE.c ****    } 
  79:../Dave/Generated/DAVE.c ****   if (init_status == DAVE_STATUS_SUCCESS)
  77              	 .loc 1 79 0
  78 0046 FB1D     	 add r3,r7,#7
  79 0048 1B78     	 ldrb r3,[r3]
  80 004a 002B     	 cmp r3,#0
  81 004c 06D1     	 bne .L4
  80:../Dave/Generated/DAVE.c ****   {
  81:../Dave/Generated/DAVE.c **** 	 /**  Initialization of DIGITAL_IO APP instance button1 */
  82:../Dave/Generated/DAVE.c **** 	 init_status = (DAVE_STATUS_t)DIGITAL_IO_Init(&button1); 
  82              	 .loc 1 82 0
  83 004e FC1D     	 add r4,r7,#7
  84 0050 2F4B     	 ldr r3,.L13+12
  85 0052 181C     	 mov r0,r3
  86 0054 FFF7FEFF 	 bl DIGITAL_IO_Init
  87 0058 031C     	 mov r3,r0
  88 005a 2370     	 strb r3,[r4]
  89              	.L4:
  83:../Dave/Generated/DAVE.c ****    } 
  84:../Dave/Generated/DAVE.c ****   if (init_status == DAVE_STATUS_SUCCESS)
  90              	 .loc 1 84 0
  91 005c FB1D     	 add r3,r7,#7
  92 005e 1B78     	 ldrb r3,[r3]
  93 0060 002B     	 cmp r3,#0
  94 0062 06D1     	 bne .L5
  85:../Dave/Generated/DAVE.c ****   {
  86:../Dave/Generated/DAVE.c **** 	 /**  Initialization of DIGITAL_IO APP instance button2 */
  87:../Dave/Generated/DAVE.c **** 	 init_status = (DAVE_STATUS_t)DIGITAL_IO_Init(&button2); 
  95              	 .loc 1 87 0
  96 0064 FC1D     	 add r4,r7,#7
  97 0066 2B4B     	 ldr r3,.L13+16
  98 0068 181C     	 mov r0,r3
  99 006a FFF7FEFF 	 bl DIGITAL_IO_Init
 100 006e 031C     	 mov r3,r0
 101 0070 2370     	 strb r3,[r4]
 102              	.L5:
  88:../Dave/Generated/DAVE.c ****    } 
  89:../Dave/Generated/DAVE.c ****   if (init_status == DAVE_STATUS_SUCCESS)
 103              	 .loc 1 89 0
 104 0072 FB1D     	 add r3,r7,#7
 105 0074 1B78     	 ldrb r3,[r3]
 106 0076 002B     	 cmp r3,#0
 107 0078 06D1     	 bne .L6
  90:../Dave/Generated/DAVE.c ****   {
  91:../Dave/Generated/DAVE.c **** 	 /**  Initialization of DIGITAL_IO APP instance button3 */
  92:../Dave/Generated/DAVE.c **** 	 init_status = (DAVE_STATUS_t)DIGITAL_IO_Init(&button3); 
 108              	 .loc 1 92 0
 109 007a FC1D     	 add r4,r7,#7
 110 007c 264B     	 ldr r3,.L13+20
 111 007e 181C     	 mov r0,r3
 112 0080 FFF7FEFF 	 bl DIGITAL_IO_Init
 113 0084 031C     	 mov r3,r0
 114 0086 2370     	 strb r3,[r4]
 115              	.L6:
  93:../Dave/Generated/DAVE.c ****    } 
  94:../Dave/Generated/DAVE.c ****   if (init_status == DAVE_STATUS_SUCCESS)
 116              	 .loc 1 94 0
 117 0088 FB1D     	 add r3,r7,#7
 118 008a 1B78     	 ldrb r3,[r3]
 119 008c 002B     	 cmp r3,#0
 120 008e 06D1     	 bne .L7
  95:../Dave/Generated/DAVE.c ****   {
  96:../Dave/Generated/DAVE.c **** 	 /**  Initialization of DIGITAL_IO APP instance button4 */
  97:../Dave/Generated/DAVE.c **** 	 init_status = (DAVE_STATUS_t)DIGITAL_IO_Init(&button4); 
 121              	 .loc 1 97 0
 122 0090 FC1D     	 add r4,r7,#7
 123 0092 224B     	 ldr r3,.L13+24
 124 0094 181C     	 mov r0,r3
 125 0096 FFF7FEFF 	 bl DIGITAL_IO_Init
 126 009a 031C     	 mov r3,r0
 127 009c 2370     	 strb r3,[r4]
 128              	.L7:
  98:../Dave/Generated/DAVE.c ****    } 
  99:../Dave/Generated/DAVE.c ****   if (init_status == DAVE_STATUS_SUCCESS)
 129              	 .loc 1 99 0
 130 009e FB1D     	 add r3,r7,#7
 131 00a0 1B78     	 ldrb r3,[r3]
 132 00a2 002B     	 cmp r3,#0
 133 00a4 06D1     	 bne .L8
 100:../Dave/Generated/DAVE.c ****   {
 101:../Dave/Generated/DAVE.c **** 	 /**  Initialization of DIGITAL_IO APP instance button5 */
 102:../Dave/Generated/DAVE.c **** 	 init_status = (DAVE_STATUS_t)DIGITAL_IO_Init(&button5); 
 134              	 .loc 1 102 0
 135 00a6 FC1D     	 add r4,r7,#7
 136 00a8 1D4B     	 ldr r3,.L13+28
 137 00aa 181C     	 mov r0,r3
 138 00ac FFF7FEFF 	 bl DIGITAL_IO_Init
 139 00b0 031C     	 mov r3,r0
 140 00b2 2370     	 strb r3,[r4]
 141              	.L8:
 103:../Dave/Generated/DAVE.c ****    } 
 104:../Dave/Generated/DAVE.c ****   if (init_status == DAVE_STATUS_SUCCESS)
 142              	 .loc 1 104 0
 143 00b4 FB1D     	 add r3,r7,#7
 144 00b6 1B78     	 ldrb r3,[r3]
 145 00b8 002B     	 cmp r3,#0
 146 00ba 06D1     	 bne .L9
 105:../Dave/Generated/DAVE.c ****   {
 106:../Dave/Generated/DAVE.c **** 	 /**  Initialization of DIGITAL_IO APP instance button_computer */
 107:../Dave/Generated/DAVE.c **** 	 init_status = (DAVE_STATUS_t)DIGITAL_IO_Init(&button_computer); 
 147              	 .loc 1 107 0
 148 00bc FC1D     	 add r4,r7,#7
 149 00be 194B     	 ldr r3,.L13+32
 150 00c0 181C     	 mov r0,r3
 151 00c2 FFF7FEFF 	 bl DIGITAL_IO_Init
 152 00c6 031C     	 mov r3,r0
 153 00c8 2370     	 strb r3,[r4]
 154              	.L9:
 108:../Dave/Generated/DAVE.c ****    } 
 109:../Dave/Generated/DAVE.c ****   if (init_status == DAVE_STATUS_SUCCESS)
 155              	 .loc 1 109 0
 156 00ca FB1D     	 add r3,r7,#7
 157 00cc 1B78     	 ldrb r3,[r3]
 158 00ce 002B     	 cmp r3,#0
 159 00d0 06D1     	 bne .L10
 110:../Dave/Generated/DAVE.c ****   {
 111:../Dave/Generated/DAVE.c **** 	 /**  Initialization of DIGITAL_IO APP instance led2 */
 112:../Dave/Generated/DAVE.c **** 	 init_status = (DAVE_STATUS_t)DIGITAL_IO_Init(&led2); 
 160              	 .loc 1 112 0
 161 00d2 FC1D     	 add r4,r7,#7
 162 00d4 144B     	 ldr r3,.L13+36
 163 00d6 181C     	 mov r0,r3
 164 00d8 FFF7FEFF 	 bl DIGITAL_IO_Init
 165 00dc 031C     	 mov r3,r0
 166 00de 2370     	 strb r3,[r4]
 167              	.L10:
 113:../Dave/Generated/DAVE.c ****    } 
 114:../Dave/Generated/DAVE.c ****   if (init_status == DAVE_STATUS_SUCCESS)
 168              	 .loc 1 114 0
 169 00e0 FB1D     	 add r3,r7,#7
 170 00e2 1B78     	 ldrb r3,[r3]
 171 00e4 002B     	 cmp r3,#0
 172 00e6 06D1     	 bne .L11
 115:../Dave/Generated/DAVE.c ****   {
 116:../Dave/Generated/DAVE.c **** 	 /**  Initialization of PWM_CCU4 APP instance pwm1 */
 117:../Dave/Generated/DAVE.c **** 	 init_status = (DAVE_STATUS_t)PWM_CCU4_Init(&pwm1); 
 173              	 .loc 1 117 0
 174 00e8 FC1D     	 add r4,r7,#7
 175 00ea 104B     	 ldr r3,.L13+40
 176 00ec 181C     	 mov r0,r3
 177 00ee FFF7FEFF 	 bl PWM_CCU4_Init
 178 00f2 031C     	 mov r3,r0
 179 00f4 2370     	 strb r3,[r4]
 180              	.L11:
 118:../Dave/Generated/DAVE.c ****    }  
 119:../Dave/Generated/DAVE.c ****   return init_status;
 181              	 .loc 1 119 0
 182 00f6 FB1D     	 add r3,r7,#7
 183 00f8 1B78     	 ldrb r3,[r3]
 120:../Dave/Generated/DAVE.c **** } /**  End of function DAVE_Init */
 184              	 .loc 1 120 0
 185 00fa 181C     	 mov r0,r3
 186 00fc BD46     	 mov sp,r7
 187 00fe 03B0     	 add sp,sp,#12
 188              	 
 189 0100 90BD     	 pop {r4,r7,pc}
 190              	.L14:
 191 0102 C046     	 .align 2
 192              	.L13:
 193 0104 00000000 	 .word CLOCK_XMC1_0
 194 0108 00000000 	 .word i2c_bus
 195 010c 00000000 	 .word sys_timer
 196 0110 00000000 	 .word button1
 197 0114 00000000 	 .word button2
 198 0118 00000000 	 .word button3
 199 011c 00000000 	 .word button4
 200 0120 00000000 	 .word button5
 201 0124 00000000 	 .word button_computer
 202 0128 00000000 	 .word led2
 203 012c 00000000 	 .word pwm1
 204              	 .cfi_endproc
 205              	.LFE197:
 207              	 .text
 208              	.Letext0:
 209              	 .file 2 "c:\\davev4-64bit\\dave-4.3.2\\eclipse\\arm-gcc-49\\arm-none-eabi\\include\\machine\\_default_types.h"
 210              	 .file 3 "c:\\davev4-64bit\\dave-4.3.2\\eclipse\\arm-gcc-49\\arm-none-eabi\\include\\stdint.h"
 211              	 .file 4 "C:/c_root/electronics/DAVE_work_2019/pocket-nim/Libraries/CMSIS/Infineon/XMC1100_series/Include/XMC1100.h"
 212              	 .file 5 "C:/c_root/electronics/DAVE_work_2019/pocket-nim/Libraries/XMCLib/inc/xmc1_scu.h"
 213              	 .file 6 "../Dave/Generated/CLOCK_XMC1/clock_xmc1.h"
 214              	 .file 7 "C:/c_root/electronics/DAVE_work_2019/pocket-nim/Libraries/XMCLib/inc/xmc_gpio.h"
 215              	 .file 8 "C:/c_root/electronics/DAVE_work_2019/pocket-nim/Libraries/XMCLib/inc/xmc1_gpio.h"
 216              	 .file 9 "C:/c_root/electronics/DAVE_work_2019/pocket-nim/Libraries/XMCLib/inc/xmc_usic.h"
 217              	 .file 10 "C:/c_root/electronics/DAVE_work_2019/pocket-nim/Libraries/XMCLib/inc/xmc_i2c.h"
 218              	 .file 11 "../Dave/Generated/I2C_MASTER/i2c_master.h"
 219              	 .file 12 "../Dave/Generated/SYSTIMER/systimer.h"
 220              	 .file 13 "../Dave/Generated/DIGITAL_IO/digital_io.h"
 221              	 .file 14 "C:/c_root/electronics/DAVE_work_2019/pocket-nim/Libraries/XMCLib/inc/xmc_ccu4.h"
 222              	 .file 15 "../Dave/Generated/GLOBAL_CCU4/global_ccu4.h"
 223              	 .file 16 "../Dave/Generated/PWM_CCU4/pwm_ccu4.h"
 224              	 .file 17 "../Dave/Generated/DAVE.h"
 225              	 .file 18 "C:/c_root/electronics/DAVE_work_2019/pocket-nim/Libraries/CMSIS/Infineon/XMC1100_series/Include/system_XMC1100.h"
 226              	 .file 19 "../Dave/Generated/CLOCK_XMC1/clock_xmc1_extern.h"
 227              	 .file 20 "../Dave/Generated/I2C_MASTER/i2c_master_extern.h"
 228              	 .file 21 "../Dave/Generated/SYSTIMER/systimer_extern.h"
 229              	 .file 22 "../Dave/Generated/DIGITAL_IO/digital_io_extern.h"
 230              	 .file 23 "../Dave/Generated/PWM_CCU4/pwm_ccu4_extern.h"